"File: BS45F3235_LIB.c  Assembler  Version HGASM0202      Page 1


   1  0000              ; Generated by holtek-gcc v3.19, Fri Mar 20 11:48:01 2020
   2  0000              ; 
   3  0000              ; Configuration:
   4  0000              ;       without long instruction
   5  0000              ;       Single ROM, Multi-RAM
   6  0000              ;       bits_per_rom_unit:14
   7  0000              ;       with mp1
   8  0000              ;       with tbhp, address(0x1f)
   9  0000              ;          Use ret-const
  10  0000              ;       
  11  0000              ;       
  12  0000              ;       
  13  0000              ; use 'tabrdc' instead of 'tabrd'
  14  0000              ;       
  15  0000              
  16  0000              #pragma translator "holtek-gcc 4.6.4" "3.19" "build 20130711"
  17  0000              ; Rebuild 718
  18  0000              
  19  0000              ir equ [2]
  20  0000              mp equ [3]
  21  0000              sbp equ [7]
  22  0000              acc equ [5]
  23  0000              bp equ [4]
  24  0000              status equ [10]
  25  0000              c equ [10].0
  26  0000              ac equ [10].1
  27  0000              z equ [10].2
  28  0000              ov equ [10].3
  29  0000              intc equ [11]
  30  0000              
  31  0000              extern ra:byte
  32  0000              extern rb:byte
  33  0000              extern rc:byte
  34  0000              extern rd:byte
  35  0000              extern re:byte
  36  0000              extern rf:byte
  37  0000              extern rg:byte
  38  0000              extern rh:byte
  39  0000              extern _Crom2Prom:near
  40  0000              extern _Crom2PromNext:near
  41  0000              
  42  0000              RAMBANK 0 @HCCINIT, @HCCINIT0
  43  0000              
  44  0000              RAMBANK 0 @BITDATASEC, @BITDATASEC1
  45  0000              @HCCINIT	.section 'data'
  46  0000              @HCCINIT0	.section 'data'
  47  0000              @BITDATASEC	 .section 'data'
  48  0000              @BITDATASEC1	 .section 'data'
  49  0000              
  50  0000              #pragma debug scope 1 1
  51  0000              	extern __DELAY3:near
  52  0000              	extern __DELAYX3:near
  53  0000              	extern __DELAYX6:near
  54  0000              	extern __DELAYY5:near
  55  0000              	extern __DELAYY3:near
  56  0000              	extern _builtin_holtek_delay_2:byte
  57  0000              ___uucr2 equ [27]
  58  0000              ___utxr_rxr equ [28]
  59  0000              ___uusr equ [30]
"File: BS45F3235_LIB.ASM  Assembler  Version HGASM0202      Page 2

  60  0000              public _uart_sent
  61  0000              #pragma debug scope 2 1

  25  0000              #line 25 "D:\Downloads\ShuttleByDerek\BS45F3235_LIB.c"
  25  0000              _uart_sent .section 'code'
  25  0000              _uart_sent proc
  28  0000              #line 28 "D:\Downloads\ShuttleByDerek\BS45F3235_LIB.c"
  28  0000  339B        	set [27].7
  30  0001              #line 30 "D:\Downloads\ShuttleByDerek\BS45F3235_LIB.c"
  30  0001  0700     R  	mov a,_max_adc[0]
  30  0002  0080     E  	mov ra,a
  30  0003  0700     R  	mov a,_max_adc[1]
  30  0004  009C        	mov [28],a
  30  0005              _L2:
  31  0005              #line 31 "D:\Downloads\ShuttleByDerek\BS45F3235_LIB.c"
  31  0005  3C9E        	sz [30].1
  31  0006  2800     R  	jmp _L11
  32  0007              #line 32 "D:\Downloads\ShuttleByDerek\BS45F3235_LIB.c"
  32  0007              ;# 32 "D:\Downloads\ShuttleByDerek\BS45F3235_LIB.c" 1
  32  0007  0001        	clr wdt
  32  0008  2800     R  	jmp _L2
  32  0009              _L11:
  34  0009              #line 34 "D:\Downloads\ShuttleByDerek\BS45F3235_LIB.c"
  34  0009  0700     E  	mov a,ra
  34  000A  009C        	mov [28],a
  34  000B              _L4:
  35  000B              #line 35 "D:\Downloads\ShuttleByDerek\BS45F3235_LIB.c"
  35  000B  3C9E        	sz [30].1
  35  000C  2800     R  	jmp _L12
  36  000D              #line 36 "D:\Downloads\ShuttleByDerek\BS45F3235_LIB.c"
  36  000D              ;# 36 "D:\Downloads\ShuttleByDerek\BS45F3235_LIB.c" 1
  36  000D  0001        	clr wdt
  36  000E  2800     R  	jmp _L4
  36  000F              _L12:
  38  000F              #line 38 "D:\Downloads\ShuttleByDerek\BS45F3235_LIB.c"
  38  000F  0700     R  	mov a,_distance[0]
  38  0010  009C        	mov [28],a
  38  0011              _L6:
  39  0011              #line 39 "D:\Downloads\ShuttleByDerek\BS45F3235_LIB.c"
  39  0011  3C9E        	sz [30].1
  39  0012  2800     R  	jmp _L13
  40  0013              #line 40 "D:\Downloads\ShuttleByDerek\BS45F3235_LIB.c"
  40  0013              ;# 40 "D:\Downloads\ShuttleByDerek\BS45F3235_LIB.c" 1
  40  0013  0001        	clr wdt
  40  0014  2800     R  	jmp _L6
  40  0015              _L13:
  42  0015              #line 42 "D:\Downloads\ShuttleByDerek\BS45F3235_LIB.c"
  42  0015  0700     R  	mov a,_adc_count[0]
  42  0016  009C        	mov [28],a
  43  0017              #line 43 "D:\Downloads\ShuttleByDerek\BS45F3235_LIB.c"
  43  0017  2800     R  	jmp _L8
  43  0018              _L9:
  44  0018              #line 44 "D:\Downloads\ShuttleByDerek\BS45F3235_LIB.c"
  44  0018              ;# 44 "D:\Downloads\ShuttleByDerek\BS45F3235_LIB.c" 1
  44  0018  0001        	clr wdt
  44  0019              _L8:
  43  0019              #line 43 "D:\Downloads\ShuttleByDerek\BS45F3235_LIB.c"
  43  0019  389E        	snz [30].1
  43  001A  2800     R  	jmp _L9
  43  001B  0003        	ret
"File: BS45F3235_LIB.c  Assembler  Version HGASM0202      Page 3

  43  001C              _uart_sent endp
  43  001C              #line 43 "D:\Downloads\ShuttleByDerek\BS45F3235_LIB.c"
  43  001C              #pragma debug scope 1 1
  43  001C              public _ktbl_init
  43  001C              #pragma debug scope 3 1
  55  001C              #line 55 "D:\Downloads\ShuttleByDerek\BS45F3235_LIB.c"
  55  0000              _ktbl_init .section 'code'
  55  0000              _ktbl_init proc
  55  0000  0002[           local _ktbl_init_2 db 2 dup(?)	; 0,2
            00
            ]
  56  0002              #line 56 "D:\Downloads\ShuttleByDerek\BS45F3235_LIB.c"
  56  0000  0F01        	mov a,1
  56  0001  0080     R  	mov _i[0],a
  56  0002  0F01        	mov a,1
  56  0003  0080     E  	mov ra,a
  56  0004              _L15:
  58  0004              #line 58 "D:\Downloads\ShuttleByDerek\BS45F3235_LIB.c"
  58  0004  0700     E  	mov a,ra
  58  0005  0080     E  	mov rd,a
  58  0006  1F00     E  	clr re
  58  0007  340A        	clr c
  58  0008  1A00     E  	rlca rd
  58  0009  0080     E  	mov rb,a
  58  000A  1A00     E  	rlca re
  58  000B  0080     E  	mov rc,a
  58  000C  0F00     R  	mov a,low offset _ktbl
  58  000D  0380     E  	addm a,rb
  58  000E  0F00     R  	mov a,high offset _ktbl
  58  000F  1380     E  	adcm a,rc
  58  0010  340A        	clr c
  58  0011  1A00     E  	rlca rd
  58  0012  0080     R  	mov _ktbl_init_2[0],a
  58  0013  1A00     E  	rlca re
  58  0014  0080     R  	mov _ktbl_init_2[1],a
  58  0015  0700     E  	mov a,rb
  58  0016  0083        	mov mp,a
  58  0017  0700     E  	mov a,rc
  58  0018  0087        	mov sbp,a
  58  0019  2000     E  	call _Crom2Prom
  58  001A  0080     E  	mov rd,a
  58  001B  2000     E  	call _Crom2PromNext
  58  001C  0080     E  	mov re,a
  58  001D  340A        	clr c
  58  001E  1A00     E  	rlca rd
  58  001F  0080     E  	mov rf,a
  58  0020  1A00     E  	rlca re
  58  0021  0080     E  	mov rg,a
  58  0022  340A        	clr c
  58  0023  1A80     E  	rlc rf
  58  0024  1A80     E  	rlc rg
  58  0025  0700     E  	mov a,rf
  58  0026  0380     E  	addm a,rd
  58  0027  0700     E  	mov a,rg
  58  0028  1380     E  	adcm a,re
  58  0029  340A        	clr c
  58  002A  1A80     E  	rlc rd
  58  002B  1A80     E  	rlc re
  58  002C  0F00     R  	mov a,low (offset _ktbl-2)
  58  002D  0300     R  	add a,_ktbl_init_2[0]
"File: BS45F3235_LIB.c  Assembler  Version HGASM0202      Page 4

  58  002E  0083        	mov mp,a
  58  002F  0F00     R  	mov a,high (offset _ktbl-2)
  58  0030  1300     R  	adc a,_ktbl_init_2[1]
  58  0031  0087        	mov sbp,a
  58  0032  2000     E  	call _Crom2Prom
  58  0033  0080     E  	mov rf,a
  58  0034  2000     E  	call _Crom2PromNext
  58  0035  0080     E  	mov rg,a
  58  0036  0700     E  	mov a,rf
  58  0037  0200     E  	sub a,rd
  58  0038  0080     E  	mov rf,a
  58  0039  0700     E  	mov a,rg
  58  003A  1200     E  	sbc a,re
  58  003B  0080     E  	mov rg,a
  58  003C  0700     E  	mov a,rb
  58  003D  0083        	mov mp,a
  58  003E  0700     E  	mov a,rc
  58  003F  0087        	mov sbp,a
  58  0040  0707        	mov a,sbp
  58  0041  0084        	mov bp,a
  58  0042  0700     E  	mov a,rf
  58  0043  0082        	mov ir,a
  58  0044  1483        	inc mp
  58  0045  0700     E  	mov a,rg
  58  0046  0082        	mov ir,a
  56  0047              #line 56 "D:\Downloads\ShuttleByDerek\BS45F3235_LIB.c"
  56  0047  1480     E  	inc ra
  56  0048  0F0A        	mov a,10
  56  0049  0200     E  	sub a,ra
  56  004A  3C0A        	sz c
  56  004B  2800     R  	jmp _L15
  56  004C  0700     E  	mov a,ra
  56  004D  0080     R  	mov _i[0],a
  56  004E  0003        	ret
  56  004F              _ktbl_init endp
  56  004F              #line 56 "D:\Downloads\ShuttleByDerek\BS45F3235_LIB.c"
  56  004F              #pragma debug scope 1 1
  56  004F              public _transDist
  56  004F              #pragma debug scope 4 1
  63  004F              #line 63 "D:\Downloads\ShuttleByDerek\BS45F3235_LIB.c"
  63  0000              _transDist .section 'code'
  63  0000              _transDist proc
  64  0000              #line 64 "D:\Downloads\ShuttleByDerek\BS45F3235_LIB.c"
  64  0000  0700     R  	mov a,_max_adc[0]
  64  0001  0080     E  	mov rb,a
  64  0002  0700     R  	mov a,_max_adc[1]
  64  0003  0080     E  	mov rc,a
  64  0004  0700     R  	mov a,_ktbl[0]
  64  0005  0200     E  	sub a,rb
  64  0006  0700     R  	mov a,_ktbl[1]
  64  0007  1200     E  	sbc a,rc
  64  0008  3C0A        	sz c
  64  0009  2800     R  	jmp _L18
  65  000A              #line 65 "D:\Downloads\ShuttleByDerek\BS45F3235_LIB.c"
  65  000A  0F10        	mov a,16
  65  000B  0080     R  	mov _distance[0],a
  65  000C  2800     R  	jmp _L17
  65  000D              _L18:
  66  000D              #line 66 "D:\Downloads\ShuttleByDerek\BS45F3235_LIB.c"
  66  000D  0700     E  	mov a,rb
"File: BS45F3235_LIB.c  Assembler  Version HGASM0202      Page 5

  66  000E  0200     R  	sub a,_ktbl[20]
  66  000F  0700     E  	mov a,rc
  66  0010  1200     R  	sbc a,_ktbl[21]
  66  0011  380A        	snz c
  66  0012  2800     R  	jmp _L20
  67  0013              #line 67 "D:\Downloads\ShuttleByDerek\BS45F3235_LIB.c"
  67  0013  0F01        	mov a,1
  67  0014  0080     R  	mov _i[0],a
  67  0015  0F01        	mov a,1
  67  0016  0080     E  	mov ra,a
  67  0017              _L21:
  67  0017  0F0A        	mov a,10
  67  0018  0200     E  	sub a,ra
  67  0019  380A        	snz c
  67  001A  2800     R  	jmp _L24
  68  001B              #line 68 "D:\Downloads\ShuttleByDerek\BS45F3235_LIB.c"
  68  001B  0700     E  	mov a,ra
  68  001C  0080     E  	mov rd,a
  68  001D  1F00     E  	clr re
  68  001E  340A        	clr c
  68  001F  1A00     E  	rlca rd
  68  0020  0080     E  	mov rf,a
  68  0021  1A00     E  	rlca re
  68  0022  0080     E  	mov rg,a
  68  0023  0F00     R  	mov a,low offset _ktbl
  68  0024  0300     E  	add a,rf
  68  0025  0083        	mov mp,a
  68  0026  0F00     R  	mov a,high offset _ktbl
  68  0027  1300     E  	adc a,rg
  68  0028  0087        	mov sbp,a
  68  0029  2000     E  	call _Crom2Prom
  68  002A  0080     E  	mov rf,a
  68  002B  2000     E  	call _Crom2PromNext
  68  002C  0080     E  	mov rg,a
  68  002D  1400     E  	inca ra
  68  002E  0080     E  	mov rh,a
  68  002F  0700     E  	mov a,rf
  68  0030  0200     E  	sub a,rb
  68  0031  0700     E  	mov a,rg
  68  0032  1200     E  	sbc a,rc
  68  0033  3C0A        	sz c
  68  0034  2800     R  	jmp _L22
  68  0035  0700     E  	mov a,ra
  68  0036  0080     R  	mov _i[0],a
  69  0037              #line 69 "D:\Downloads\ShuttleByDerek\BS45F3235_LIB.c"
  69  0037  340A        	clr c
  69  0038  1A80     E  	rlc rd
  69  0039  1A80     E  	rlc re
  69  003A  0F00     R  	mov a,low (offset _ktbl-2)
  69  003B  0300     E  	add a,rd
  69  003C  0083        	mov mp,a
  69  003D  0F00     R  	mov a,high (offset _ktbl-2)
  69  003E  1300     E  	adc a,re
  69  003F  0087        	mov sbp,a
  69  0040  2000     E  	call _Crom2Prom
  69  0041  0080     E  	mov rd,a
  69  0042  2000     E  	call _Crom2PromNext
  69  0043  0080     E  	mov re,a
  69  0044  0700     E  	mov a,ra
  69  0045  0300     E  	add a,ra
"File: BS45F3235_LIB.c  Assembler  Version HGASM0202      Page 6

  69  0046  0080     E  	mov rh,a
  69  0047  0700     E  	mov a,rh
  69  0048  0380     E  	addm a,rh
  69  0049  0700     E  	mov a,rh
  69  004A  0380     E  	addm a,ra
  69  004B  0700     E  	mov a,ra
  69  004C  0380     E  	addm a,ra
  69  004D  0F14        	mov a,20
  69  004E  0380     E  	addm a,ra
  69  004F  0700     E  	mov a,rd
  69  0050  0280     E  	subm a,rb
  69  0051  0700     E  	mov a,re
  69  0052  1280     E  	sbcm a,rc
  69  0053  0700     E  	mov a,rd
  69  0054  0200     E  	sub a,rf
  69  0055  0080     E  	mov rd,a
  69  0056  0700     E  	mov a,re
  69  0057  1200     E  	sbc a,rg
  69  0058  0080     E  	mov re,a
  69  0059  1F00     E  	clr _builtin_holtek_udivmodhi4_2[6]
  69  005A  0700     E  	mov a,rd  
  69  005B  0080     E  	mov _builtin_holtek_udivmodhi4_2[0],a  
  69  005C  0700     E  	mov a,re  
  69  005D  0080     E  	mov _builtin_holtek_udivmodhi4_2[1],a
  69  005E  0F0A        	mov a,10  
  69  005F  0080     E  	mov _builtin_holtek_udivmodhi4_2[2],a  
  69  0060  1F00     E  	clr _builtin_holtek_udivmodhi4_2[3]
  69  0061  2000     E  	call _builtin_holtek_udivmodhi4
  69  0062  0700     E  	mov a,_builtin_holtek_udivmodhi4_2[0]  
  69  0063  0080     E  	mov rd,a  
  69  0064  0700     E  	mov a,_builtin_holtek_udivmodhi4_2[1]  
  69  0065  0080     E  	mov re,a
  69  0066  1F00     E  	clr _builtin_holtek_udivmodhi4_2[6]
  69  0067  0700     E  	mov a,rb  
  69  0068  0080     E  	mov _builtin_holtek_udivmodhi4_2[0],a  
  69  0069  0700     E  	mov a,rc  
  69  006A  0080     E  	mov _builtin_holtek_udivmodhi4_2[1],a
  69  006B  0700     E  	mov a,rd  
  69  006C  0080     E  	mov _builtin_holtek_udivmodhi4_2[2],a  
  69  006D  0700     E  	mov a,re  
  69  006E  0080     E  	mov _builtin_holtek_udivmodhi4_2[3],a
  69  006F  2000     E  	call _builtin_holtek_udivmodhi4
  69  0070  0700     E  	mov a,_builtin_holtek_udivmodhi4_2[0]  
  69  0071  0080     E  	mov rb,a  
  69  0072  0700     E  	mov a,_builtin_holtek_udivmodhi4_2[1]  
  69  0073  0080     E  	mov rc,a
  69  0074  0700     E  	mov a,ra
  69  0075  0300     E  	add a,rb
  69  0076  0080     R  	mov _distance[0],a
  70  0077              #line 70 "D:\Downloads\ShuttleByDerek\BS45F3235_LIB.c"
  70  0077  2800     R  	jmp _L17
  70  0078              _L22:
  68  0078              #line 68 "D:\Downloads\ShuttleByDerek\BS45F3235_LIB.c"
  68  0078  0700     E  	mov a,rh
  68  0079  0080     E  	mov ra,a
  68  007A  2800     R  	jmp _L21
  68  007B              _L24:
  68  007B  0700     E  	mov a,ra
  68  007C  0080     R  	mov _i[0],a
  68  007D  2800     R  	jmp _L17
"File: BS45F3235_LIB.c  Assembler  Version HGASM0202      Page 7

  68  007E              _L20:
  75  007E              #line 75 "D:\Downloads\ShuttleByDerek\BS45F3235_LIB.c"
  75  007E  0FF0        	mov a,240
  75  007F  0080     R  	mov _distance[0],a
  75  0080              _L17:
  75  0080  0003        	ret
  75  0081              _transDist endp
  75  0081              #line 75 "D:\Downloads\ShuttleByDerek\BS45F3235_LIB.c"
  75  0081              #pragma debug scope 1 1
  75  0081              ___status equ [10]
  75  0081              ___hircc equ [12]
  75  0081              ___idata equ [24]
  75  0081              ___opdc0 equ [50]
  75  0081              ___pb equ [37]
  75  0081              public _main
  75  0081              #pragma debug scope 5 1
  78  0081              #line 78 "D:\Downloads\ShuttleByDerek\BS45F3235_LIB.c"
  78  0081              IFDEF WITH_DEFAULT_STARTUP
  78  0081              extern _main_initial0:near
  78  0081              extern _main_startup:near
  78  0081              ENDIF
  78  0081              
  78  0081              ROMBANK 0 @start
  78  0000              @start .section com_l 'code'
  78  0000              _main_startup1:
  78  0000              @start .section com_e 'code'
  78  0000  2800     R  	jmp _main
  78  0001              
  78  0000              _main .section 'code'
  78  0000              _main proc
  79  0000              #line 79 "D:\Downloads\ShuttleByDerek\BS45F3235_LIB.c"
  79  0000  3E8A        	sz [10].5
  79  0001  2800     R  	jmp _L34
  79  0002              _L27:
  82  0002              #line 82 "D:\Downloads\ShuttleByDerek\BS45F3235_LIB.c"
  82  0002  3C8C        	sz [12].1
  82  0003  2800     R  	jmp _L35
  83  0004              #line 83 "D:\Downloads\ShuttleByDerek\BS45F3235_LIB.c"
  83  0004              ;# 83 "D:\Downloads\ShuttleByDerek\BS45F3235_LIB.c" 1
  83  0004              	IF 100>263690
  83  0004              ;# 83 "D:\Downloads\ShuttleByDerek\BS45F3235_LIB.c" 1
  83  0004              	ERRMESSAGE 'the value 100of the argument exceeds the maxinum 263690'
  83  0004              	ENDIF
  83  0004              ;# 83 "D:\Downloads\ShuttleByDerek\BS45F3235_LIB.c" 1
  83  0004              	IF 100<0
  83  0004              ;# 83 "D:\Downloads\ShuttleByDerek\BS45F3235_LIB.c" 1
  83  0004              	ERRMESSAGE 'the value 100 of the argument exceeds the mininum 0'
  83  0004              	ENDIF
  83  0004              ;# 83 "D:\Downloads\ShuttleByDerek\BS45F3235_LIB.c" 1
  83  0004              	IF 100==0
  83  0004              ;# 83 "D:\Downloads\ShuttleByDerek\BS45F3235_LIB.c" 1
  83  0004              	JMP $
  83  0004              	ENDIF
  83  0004              ;# 83 "D:\Downloads\ShuttleByDerek\BS45F3235_LIB.c" 1
  83  0004              	IF 100==1
  83  0004              ;# 83 "D:\Downloads\ShuttleByDerek\BS45F3235_LIB.c" 1
  83  0004              	NOP
  83  0004              	ENDIF
  83  0004              ;# 83 "D:\Downloads\ShuttleByDerek\BS45F3235_LIB.c" 1
  83  0004              	IF 100==2
"File: BS45F3235_LIB.c  Assembler  Version HGASM0202      Page 8

  83  0004              ;# 83 "D:\Downloads\ShuttleByDerek\BS45F3235_LIB.c" 1
  83  0004              	NOP
  83  0004              ;# 83 "D:\Downloads\ShuttleByDerek\BS45F3235_LIB.c" 1
  83  0004              	NOP
  83  0004              	ENDIF
  83  0004              ;# 83 "D:\Downloads\ShuttleByDerek\BS45F3235_LIB.c" 1
  83  0004              	IF 100==3
  83  0004              ;# 83 "D:\Downloads\ShuttleByDerek\BS45F3235_LIB.c" 1
  83  0004              	NOP
  83  0004              ;# 83 "D:\Downloads\ShuttleByDerek\BS45F3235_LIB.c" 1
  83  0004              	NOP
  83  0004              ;# 83 "D:\Downloads\ShuttleByDerek\BS45F3235_LIB.c" 1
  83  0004              	NOP
  83  0004              	ENDIF
  83  0004              ;# 83 "D:\Downloads\ShuttleByDerek\BS45F3235_LIB.c" 1
  83  0004              	IF (100<8) AND (100>3)
  83  0004              ;# 83 "D:\Downloads\ShuttleByDerek\BS45F3235_LIB.c" 1
  83  0004              	CALL __DELAY3 + 7 -100
  83  0004              	ENDIF
  83  0004              ;# 83 "D:\Downloads\ShuttleByDerek\BS45F3235_LIB.c" 1
  83  0004              	IF (100< 0404h) AND (100>7)
  83  0004              ;# 83 "D:\Downloads\ShuttleByDerek\BS45F3235_LIB.c" 1
  83  0004  0F18        	MOV A,100/4-1
  83  0005              ;# 83 "D:\Downloads\ShuttleByDerek\BS45F3235_LIB.c" 1
  83  0005  2000     E  	CALL __DELAYX3 + 3 -(100 MOD 4)
  83  0006              	ENDIF
  83  0006              ;# 83 "D:\Downloads\ShuttleByDerek\BS45F3235_LIB.c" 1
  83  0006              	IF (100< 0x40B) AND (100> 0403h)
  83  0006              ;# 83 "D:\Downloads\ShuttleByDerek\BS45F3235_LIB.c" 1
  83  0006              	MOV A,0 
  83  0006              ;# 83 "D:\Downloads\ShuttleByDerek\BS45F3235_LIB.c" 1
  83  0006              	CALL __DELAYX6 + 0x40a -100
  83  0006              	ENDIF
  83  0006              ;# 83 "D:\Downloads\ShuttleByDerek\BS45F3235_LIB.c" 1
  83  0006              	IF (100 >= 0x40b) AND ((((100-9)%0402h)/4+1)>256)
  83  0006              ;# 83 "D:\Downloads\ShuttleByDerek\BS45F3235_LIB.c" 1
  83  0006              	MOV A,(100-9)/0402h
  83  0006              ;# 83 "D:\Downloads\ShuttleByDerek\BS45F3235_LIB.c" 1
  83  0006              	MOV _builtin_holtek_delay_2,A
  83  0006              ;# 83 "D:\Downloads\ShuttleByDerek\BS45F3235_LIB.c" 1
  83  0006              	MOV A,0
  83  0006              ;# 83 "D:\Downloads\ShuttleByDerek\BS45F3235_LIB.c" 1
  83  0006              	CALL __DELAYY5 +5- (((100-9)%0402h)%6)
  83  0006              	ENDIF
  83  0006              ;# 83 "D:\Downloads\ShuttleByDerek\BS45F3235_LIB.c" 1
  83  0006              	IF (100 >= 0x40b) AND ((((100-9)%0402h)/4+1)<=256)
  83  0006              ;# 83 "D:\Downloads\ShuttleByDerek\BS45F3235_LIB.c" 1
  83  0006              	MOV A,(100-9)/0402h
  83  0006              ;# 83 "D:\Downloads\ShuttleByDerek\BS45F3235_LIB.c" 1
  83  0006              	MOV _builtin_holtek_delay_2,A
  83  0006              ;# 83 "D:\Downloads\ShuttleByDerek\BS45F3235_LIB.c" 1
  83  0006              	MOV A,((100-9)%0402h)/4+1
  83  0006              ;# 83 "D:\Downloads\ShuttleByDerek\BS45F3235_LIB.c" 1
  83  0006              	CALL __DELAYY3 +3-(((100-9)%0402h)%4)
  83  0006              	ENDIF
  83  0006  2800     R  	jmp _L27
  83  0007              _L35:
  84  0007              #line 84 "D:\Downloads\ShuttleByDerek\BS45F3235_LIB.c"
  84  0007              ;# 84 "D:\Downloads\ShuttleByDerek\BS45F3235_LIB.c" 1
  84  0007              	IF 20000>263690
"File: BS45F3235_LIB.c  Assembler  Version HGASM0202      Page 9

  84  0007              ;# 84 "D:\Downloads\ShuttleByDerek\BS45F3235_LIB.c" 1
  84  0007              	ERRMESSAGE 'the value 20000of the argument exceeds the maxinum 263690'
  84  0007              	ENDIF
  84  0007              ;# 84 "D:\Downloads\ShuttleByDerek\BS45F3235_LIB.c" 1
  84  0007              	IF 20000<0
  84  0007              ;# 84 "D:\Downloads\ShuttleByDerek\BS45F3235_LIB.c" 1
  84  0007              	ERRMESSAGE 'the value 20000 of the argument exceeds the mininum 0'
  84  0007              	ENDIF
  84  0007              ;# 84 "D:\Downloads\ShuttleByDerek\BS45F3235_LIB.c" 1
  84  0007              	IF 20000==0
  84  0007              ;# 84 "D:\Downloads\ShuttleByDerek\BS45F3235_LIB.c" 1
  84  0007              	JMP $
  84  0007              	ENDIF
  84  0007              ;# 84 "D:\Downloads\ShuttleByDerek\BS45F3235_LIB.c" 1
  84  0007              	IF 20000==1
  84  0007              ;# 84 "D:\Downloads\ShuttleByDerek\BS45F3235_LIB.c" 1
  84  0007              	NOP
  84  0007              	ENDIF
  84  0007              ;# 84 "D:\Downloads\ShuttleByDerek\BS45F3235_LIB.c" 1
  84  0007              	IF 20000==2
  84  0007              ;# 84 "D:\Downloads\ShuttleByDerek\BS45F3235_LIB.c" 1
  84  0007              	NOP
  84  0007              ;# 84 "D:\Downloads\ShuttleByDerek\BS45F3235_LIB.c" 1
  84  0007              	NOP
  84  0007              	ENDIF
  84  0007              ;# 84 "D:\Downloads\ShuttleByDerek\BS45F3235_LIB.c" 1
  84  0007              	IF 20000==3
  84  0007              ;# 84 "D:\Downloads\ShuttleByDerek\BS45F3235_LIB.c" 1
  84  0007              	NOP
  84  0007              ;# 84 "D:\Downloads\ShuttleByDerek\BS45F3235_LIB.c" 1
  84  0007              	NOP
  84  0007              ;# 84 "D:\Downloads\ShuttleByDerek\BS45F3235_LIB.c" 1
  84  0007              	NOP
  84  0007              	ENDIF
  84  0007              ;# 84 "D:\Downloads\ShuttleByDerek\BS45F3235_LIB.c" 1
  84  0007              	IF (20000<8) AND (20000>3)
  84  0007              ;# 84 "D:\Downloads\ShuttleByDerek\BS45F3235_LIB.c" 1
  84  0007              	CALL __DELAY3 + 7 -20000
  84  0007              	ENDIF
  84  0007              ;# 84 "D:\Downloads\ShuttleByDerek\BS45F3235_LIB.c" 1
  84  0007              	IF (20000< 0404h) AND (20000>7)
  84  0007              ;# 84 "D:\Downloads\ShuttleByDerek\BS45F3235_LIB.c" 1
  84  0007              	MOV A,20000/4-1
  84  0007              ;# 84 "D:\Downloads\ShuttleByDerek\BS45F3235_LIB.c" 1
  84  0007              	CALL __DELAYX3 + 3 -(20000 MOD 4)
  84  0007              	ENDIF
  84  0007              ;# 84 "D:\Downloads\ShuttleByDerek\BS45F3235_LIB.c" 1
  84  0007              	IF (20000< 0x40B) AND (20000> 0403h)
  84  0007              ;# 84 "D:\Downloads\ShuttleByDerek\BS45F3235_LIB.c" 1
  84  0007              	MOV A,0 
  84  0007              ;# 84 "D:\Downloads\ShuttleByDerek\BS45F3235_LIB.c" 1
  84  0007              	CALL __DELAYX6 + 0x40a -20000
  84  0007              	ENDIF
  84  0007              ;# 84 "D:\Downloads\ShuttleByDerek\BS45F3235_LIB.c" 1
  84  0007              	IF (20000 >= 0x40b) AND ((((20000-9)%0402h)/4+1)>256)
  84  0007              ;# 84 "D:\Downloads\ShuttleByDerek\BS45F3235_LIB.c" 1
  84  0007              	MOV A,(20000-9)/0402h
  84  0007              ;# 84 "D:\Downloads\ShuttleByDerek\BS45F3235_LIB.c" 1
  84  0007              	MOV _builtin_holtek_delay_2,A
  84  0007              ;# 84 "D:\Downloads\ShuttleByDerek\BS45F3235_LIB.c" 1
"File: BS45F3235_LIB.c  Assembler  Version HGASM0202      Page 10

  84  0007              	MOV A,0
  84  0007              ;# 84 "D:\Downloads\ShuttleByDerek\BS45F3235_LIB.c" 1
  84  0007              	CALL __DELAYY5 +5- (((20000-9)%0402h)%6)
  84  0007              	ENDIF
  84  0007              ;# 84 "D:\Downloads\ShuttleByDerek\BS45F3235_LIB.c" 1
  84  0007              	IF (20000 >= 0x40b) AND ((((20000-9)%0402h)/4+1)<=256)
  84  0007              ;# 84 "D:\Downloads\ShuttleByDerek\BS45F3235_LIB.c" 1
  84  0007  0F13        	MOV A,(20000-9)/0402h
  84  0008              ;# 84 "D:\Downloads\ShuttleByDerek\BS45F3235_LIB.c" 1
  84  0008  0080     E  	MOV _builtin_holtek_delay_2,A
  84  0009              ;# 84 "D:\Downloads\ShuttleByDerek\BS45F3235_LIB.c" 1
  84  0009  0F7D        	MOV A,((20000-9)%0402h)/4+1
  84  000A              ;# 84 "D:\Downloads\ShuttleByDerek\BS45F3235_LIB.c" 1
  84  000A  2000     E  	CALL __DELAYY3 +3-(((20000-9)%0402h)%4)
  84  000B              	ENDIF
  86  000B              #line 86 "D:\Downloads\ShuttleByDerek\BS45F3235_LIB.c"
  86  000B  2000     E  	call _clear_ram
  87  000C              #line 87 "D:\Downloads\ShuttleByDerek\BS45F3235_LIB.c"
  87  000C  2000     E  	call _initial
  88  000D              #line 88 "D:\Downloads\ShuttleByDerek\BS45F3235_LIB.c"
  88  000D  0F03        	mov a,3
  88  000E  0098        	mov [24],a
  89  000F              #line 89 "D:\Downloads\ShuttleByDerek\BS45F3235_LIB.c"
  89  000F  3332        	set [50].6
  91  0010              #line 91 "D:\Downloads\ShuttleByDerek\BS45F3235_LIB.c"
  91  0010  33B2        	set [50].7
  91  0011  2800     R  	jmp _L29
  91  0012              _L34:
  96  0012              #line 96 "D:\Downloads\ShuttleByDerek\BS45F3235_LIB.c"
  96  0012  368A        	clr [10].5
  97  0013              #line 97 "D:\Downloads\ShuttleByDerek\BS45F3235_LIB.c"
  97  0013  2000     E  	call _wake_set
  97  0014              _L29:
  99  0014              #line 99 "D:\Downloads\ShuttleByDerek\BS45F3235_LIB.c"
  99  0014  2000     R  	call _ktbl_init
  99  0015              _L33:
 102  0015              #line 102 "D:\Downloads\ShuttleByDerek\BS45F3235_LIB.c"
 102  0015              ;# 102 "D:\Downloads\ShuttleByDerek\BS45F3235_LIB.c" 1
 102  0015  0001        	clr wdt
 104  0016              #line 104 "D:\Downloads\ShuttleByDerek\BS45F3235_LIB.c"
 104  0016  30A5        	set [37].1
 105  0017              #line 105 "D:\Downloads\ShuttleByDerek\BS45F3235_LIB.c"
 105  0017  3398        	set [24].7
 106  0018              #line 106 "D:\Downloads\ShuttleByDerek\BS45F3235_LIB.c"
 106  0018  1F00     R  	clr _max_adc[0]
 106  0019  1F00     R  	clr _max_adc[1]
 107  001A              #line 107 "D:\Downloads\ShuttleByDerek\BS45F3235_LIB.c"
 107  001A  1F00     R  	clr _adc_count[0]
 108  001B              #line 108 "D:\Downloads\ShuttleByDerek\BS45F3235_LIB.c"
 108  001B  1F00     R  	clr _i[0]
 108  001C              _L30:
 111  001C              #line 111 "D:\Downloads\ShuttleByDerek\BS45F3235_LIB.c"
 111  001C  0FC7        	mov a,199
 111  001D  0200     R  	sub a,_i[0]
 111  001E  380A        	snz c
 111  001F  2800     R  	jmp _L36
 113  0020              #line 113 "D:\Downloads\ShuttleByDerek\BS45F3235_LIB.c"
 113  0020  2000     E  	call _opa_adc
 114  0021              #line 114 "D:\Downloads\ShuttleByDerek\BS45F3235_LIB.c"
 114  0021  0700     R  	mov a,_adc_16bit[0]
"File: BS45F3235_LIB.c  Assembler  Version HGASM0202      Page 11

 114  0022  0080     E  	mov rb,a
 114  0023  0700     R  	mov a,_adc_16bit[1]
 114  0024  0080     E  	mov rc,a
 114  0025  0700     R  	mov a,_max_adc[0]
 114  0026  0200     E  	sub a,rb
 114  0027  0700     R  	mov a,_max_adc[1]
 114  0028  1200     E  	sbc a,rc
 114  0029  3C0A        	sz c
 114  002A  2800     R  	jmp _L31
 115  002B              #line 115 "D:\Downloads\ShuttleByDerek\BS45F3235_LIB.c"
 115  002B  0700     E  	mov a,rb
 115  002C  0080     R  	mov _max_adc[0],a
 115  002D  0700     E  	mov a,rc
 115  002E  0080     R  	mov _max_adc[1],a
 116  002F              #line 116 "D:\Downloads\ShuttleByDerek\BS45F3235_LIB.c"
 116  002F  0700     R  	mov a,_i[0]
 116  0030  0080     R  	mov _adc_count[0],a
 116  0031              _L31:
 118  0031              #line 118 "D:\Downloads\ShuttleByDerek\BS45F3235_LIB.c"
 118  0031  1480     R  	inc _i[0]
 118  0032  2800     R  	jmp _L30
 118  0033              _L36:
 120  0033              #line 120 "D:\Downloads\ShuttleByDerek\BS45F3235_LIB.c"
 120  0033  2000     R  	call _transDist
 121  0034              #line 121 "D:\Downloads\ShuttleByDerek\BS45F3235_LIB.c"
 121  0034  2000     R  	call _uart_sent
 122  0035              #line 122 "D:\Downloads\ShuttleByDerek\BS45F3235_LIB.c"
 122  0035  3798        	clr [24].7
 126  0036              #line 126 "D:\Downloads\ShuttleByDerek\BS45F3235_LIB.c"
 126  0036  2000     E  	call _halt_set
 127  0037              #line 127 "D:\Downloads\ShuttleByDerek\BS45F3235_LIB.c"
 127  0037              ;# 127 "D:\Downloads\ShuttleByDerek\BS45F3235_LIB.c" 1
 127  0037  0002        	halt
 127  0038  2800     R  	jmp _L33
 127  0039  2800     R  	jmp $
 127  003A              _main endp
 127  003A              
 127  003A              @dummy endp
 127  003A              
 127  003A              #line 127 "D:\Downloads\ShuttleByDerek\BS45F3235_LIB.c"
 127  003A              #pragma debug scope 1 1
  11  003A              #line 11 "D:\Downloads\ShuttleByDerek\BS45F3235_LIB.c"
  11  003A              public _i
  11  0000              @HCCINIT0 .section 'data'
  11  0000              _i	db 0
  11  0001              #pragma debug variable 8 1 _i "i"
  11  0001              
  11  0000              @HCCINIT .section 'data'
  11  0000              #line 11 "D:\Downloads\ShuttleByDerek\BS45F3235_LIB.c"
  11  0000              public _adc_count
  11  0001              @HCCINIT0 .section 'data'
  11  0001              _adc_count	db 0
  11  0002              #pragma debug variable 8 1 _adc_count "adc_count"
  11  0002              
  11  0000              @HCCINIT .section 'data'
  11  0000              #line 11 "D:\Downloads\ShuttleByDerek\BS45F3235_LIB.c"
  11  0000              public _distance
  11  0002              @HCCINIT0 .section 'data'
  11  0002              _distance	db 0
  11  0003              #pragma debug variable 8 1 _distance "distance"
"File: BS45F3235_LIB.c  Assembler  Version HGASM0202      Page 12

  11  0003              
  11  0000              @HCCINIT .section 'data'
  11  0000              public _ktbl
  11  0000              @HCCINIT	.section 'data'
  10  0000              #line 10 "D:\Downloads\ShuttleByDerek\BS45F3235_LIB.c"
  10  0000              @HCCINIT .section 'data'
  10  0000              _ktbl label byte
  10  0000              #pragma debug array 42 12 11 1
  10  0000              #pragma debug array 42 12 11 1
  10  0000              #pragma debug variable 42 1 _ktbl "ktbl"
  10  0000              	dw 3680
  10  0000              @ROMDATA_BASE .section inpage 'code'
  10  0000  0960        	ret a, LOW 3680
  10  0001  090E        	ret a, HIGH 3680
  10  0002              @HCCINIT .section 'data'
  10  0002              	dw 1
  10  0002              @ROMDATA_BASE .section inpage 'code'
  10  0002  0901        	ret a, LOW 1
  10  0003  0900        	ret a, HIGH 1
  10  0004              @HCCINIT .section 'data'
  10  0004              	dw 104
  10  0004              @ROMDATA_BASE .section inpage 'code'
  10  0004  0968        	ret a, LOW 104
  10  0005  0900        	ret a, HIGH 104
  10  0006              @HCCINIT .section 'data'
  10  0006              	dw 83
  10  0006              @ROMDATA_BASE .section inpage 'code'
  10  0006  0953        	ret a, LOW 83
  10  0007  0900        	ret a, HIGH 83
  10  0008              @HCCINIT .section 'data'
  10  0008              	dw 39
  10  0008              @ROMDATA_BASE .section inpage 'code'
  10  0008  0927        	ret a, LOW 39
  10  0009  0900        	ret a, HIGH 39
  10  000A              @HCCINIT .section 'data'
  10  000A              	dw 31
  10  000A              @ROMDATA_BASE .section inpage 'code'
  10  000A  091F        	ret a, LOW 31
  10  000B  0900        	ret a, HIGH 31
  10  000C              @HCCINIT .section 'data'
  10  000C              	dw 21
  10  000C              @ROMDATA_BASE .section inpage 'code'
  10  000C  0915        	ret a, LOW 21
  10  000D  0900        	ret a, HIGH 21
  10  000E              @HCCINIT .section 'data'
  10  000E              	dw 15
  10  000E              @ROMDATA_BASE .section inpage 'code'
  10  000E  090F        	ret a, LOW 15
  10  000F  0900        	ret a, HIGH 15
  10  0010              @HCCINIT .section 'data'
  10  0010              	dw 9
  10  0010              @ROMDATA_BASE .section inpage 'code'
  10  0010  0909        	ret a, LOW 9
  10  0011  0900        	ret a, HIGH 9
  10  0012              @HCCINIT .section 'data'
  10  0012              	dw 9
  10  0012              @ROMDATA_BASE .section inpage 'code'
  10  0012  0909        	ret a, LOW 9
  10  0013  0900        	ret a, HIGH 9
  10  0014              @HCCINIT .section 'data'
"File: BS45F3235_LIB.c  Assembler  Version HGASM0202      Page 13

  10  0014              	dw 19
  10  0014              @ROMDATA_BASE .section inpage 'code'
  10  0014  0913        	ret a, LOW 19
  10  0015  0900        	ret a, HIGH 19
  10  0016              @HCCINIT .section 'data'
   9  0016              #line 9 "D:\Downloads\ShuttleByDerek\BS45F3235_LIB.c"
   9  0016              public _max_adc
   9  0003              @HCCINIT0 .section 'data'
   9  0003  0002[       _max_adc	db 2 dup(0)
            00
            ]
   9  0005              #pragma debug variable 12 1 _max_adc "max_adc"
   9  0005              
   9  0016              @HCCINIT .section 'data'
   9  0016              #line 9 "D:\Downloads\ShuttleByDerek\BS45F3235_LIB.c"
   9  0016              public _adc_16bit
   9  0005              @HCCINIT0 .section 'data'
   9  0005  0002[       _adc_16bit	db 2 dup(0)
            00
            ]
   9  0007              #pragma debug variable 12 1 _adc_16bit "adc_16bit"
   9  0007              
   9  0016              @HCCINIT .section 'data'
   5  0016              #line 5 "D:\Downloads\ShuttleByDerek\BS45F3235_LIB.c"
   5  0016              public _Flag1
   5  0007              @HCCINIT0 .section 'data'
   5  0007              _Flag1	db 0
   5  0008              #pragma debug struct_end
   5  0008              #pragma debug struct_end
   5  0008              #pragma debug variable 43 1 _Flag1 "Flag1"
   5  0008              
   5  0016              @HCCINIT .section 'data'
   5  0016              #pragma debug struct_end
   5  0016              #pragma debug struct_end
   5  0016              #pragma debug union_end
   5  0016              #pragma debug union_end
   5  0016              #pragma debug variable 45 1 ___status "__status" 1
   5  0016              #pragma debug struct_end
   5  0016              #pragma debug struct_end
   5  0016              #pragma debug union_end
   5  0016              #pragma debug union_end
   5  0016              #pragma debug variable 47 1 ___hircc "__hircc" 1
   5  0016              #pragma debug struct_end
   5  0016              #pragma debug struct_end
   5  0016              #pragma debug union_end
   5  0016              #pragma debug union_end
   5  0016              #pragma debug variable 49 1 ___idata "__idata" 1
   5  0016              #pragma debug struct_end
   5  0016              #pragma debug struct_end
   5  0016              #pragma debug union_end
   5  0016              #pragma debug union_end
   5  0016              #pragma debug variable 51 1 ___uucr2 "__uucr2" 1
   5  0016              #pragma debug struct_end
   5  0016              #pragma debug struct_end
   5  0016              #pragma debug union_end
   5  0016              #pragma debug union_end
   5  0016              #pragma debug variable 53 1 ___utxr_rxr "__utxr_rxr" 1
   5  0016              #pragma debug struct_end
   5  0016              #pragma debug struct_end
   5  0016              #pragma debug union_end
"File: BS45F3235_LIB.c  Assembler  Version HGASM0202      Page 14

   5  0016              #pragma debug union_end
   5  0016              #pragma debug variable 55 1 ___uusr "__uusr" 1
   5  0016              #pragma debug struct_end
   5  0016              #pragma debug struct_end
   5  0016              #pragma debug union_end
   5  0016              #pragma debug union_end
   5  0016              #pragma debug variable 57 1 ___pb "__pb" 1
   5  0016              #pragma debug struct_end
   5  0016              #pragma debug struct_end
   5  0016              #pragma debug union_end
   5  0016              #pragma debug union_end
   5  0016              #pragma debug variable 59 1 ___opdc0 "__opdc0" 1
  78  0016              #line 78 "D:\Downloads\ShuttleByDerek\BS45F3235_LIB.c"
  78  0000              @code .section at 0 'code'
  78  0000  2800     R  	jmp _main_startup1
  78  0001              
  78  0001              extern _builtin_holtek_udivmodhi4_2:byte
  78  0001              extern _builtin_holtek_udivmodhi4:near
  78  0001              extern _clear_ram:near
  78  0001              extern _initial:near
  78  0001              extern _wake_set:near
  78  0001              extern _opa_adc:near
  78  0001              extern _halt_set:near
  78  0001              
  78  0001              ; 
  78  0001              ; Generated by holtek-gcc v3.19, Fri Mar 20 11:48:01 2020
  78  0001              ; Rebuild 718
  78  0001              ; end of file


        0 Errors, 0