"File: BS45F3235_LIB.c  Assembler  Version HGASM0202      Page 1


   1  0000              ; Generated by holtek-gcc v3.19, Tue Mar 10 14:39:39 2020
   2  0000              ; 
   3  0000              ; Configuration:
   4  0000              ;       without long instruction
   5  0000              ;       Single ROM, Multi-RAM
   6  0000              ;       bits_per_rom_unit:14
   7  0000              ;       with mp1
   8  0000              ;       with tbhp, address(0x1f)
   9  0000              ;          Use ret-const
  10  0000              ;       
  11  0000              ;       
  12  0000              ;       
  13  0000              ; use 'tabrdc' instead of 'tabrd'
  14  0000              ;       
  15  0000              
  16  0000              #pragma translator "holtek-gcc 4.6.4" "3.19" "build 20130711"
  17  0000              ; Rebuild 115
  18  0000              
  19  0000              ir equ [2]
  20  0000              mp equ [3]
  21  0000              sbp equ [7]
  22  0000              acc equ [5]
  23  0000              bp equ [4]
  24  0000              status equ [10]
  25  0000              c equ [10].0
  26  0000              ac equ [10].1
  27  0000              z equ [10].2
  28  0000              ov equ [10].3
  29  0000              intc equ [11]
  30  0000              
  31  0000              extern ra:byte
  32  0000              extern rb:byte
  33  0000              extern rc:byte
  34  0000              extern rd:byte
  35  0000              extern re:byte
  36  0000              extern rf:byte
  37  0000              extern rg:byte
  38  0000              extern rh:byte
  39  0000              extern _Crom2Prom:near
  40  0000              extern _Crom2PromNext:near
  41  0000              
  42  0000              RAMBANK 0 @HCCINIT, @HCCINIT0
  43  0000              
  44  0000              RAMBANK 0 @BITDATASEC, @BITDATASEC1
  45  0000              @HCCINIT	.section 'data'
  46  0000              @HCCINIT0	.section 'data'
  47  0000              @BITDATASEC	 .section 'data'
  48  0000              @BITDATASEC1	 .section 'data'
  49  0000              
  50  0000              #pragma debug scope 1 1
  51  0000              	extern __DELAY3:near
  52  0000              	extern __DELAYX3:near
  53  0000              	extern __DELAYX6:near
  54  0000              	extern __DELAYY5:near
  55  0000              	extern __DELAYY3:near
  56  0000              	extern _builtin_holtek_delay_2:byte
  57  0000              ___uucr2 equ [27]
  58  0000              ___utxr_rxr equ [28]
  59  0000              ___uusr equ [30]
"File: BS45F3235_LIB.ASM  Assembler  Version HGASM0202      Page 2

  60  0000              public _uart_sent
  61  0000              #pragma debug scope 2 1

  21  0000              #line 21 "C:\Users\bobson\Desktop\IR range\BS45F3235_LIB(20200214) - tim\BS45F3235_LIB.c"
  21  0000              _uart_sent .section 'code'
  21  0000              _uart_sent proc
  22  0000              #line 22 "C:\Users\bobson\Desktop\IR range\BS45F3235_LIB(20200214) - tim\BS45F3235_LIB.c"
  22  0000  0700     R  	mov a,_adc_16bit[0]
  22  0001  0080     E  	mov rb,a
  22  0002  0700     R  	mov a,_adc_16bit[1]
  22  0003  0080     E  	mov rc,a
  22  0004  340A        	clr c
  22  0005  1B80     E  	rrc rc
  22  0006  1B80     E  	rrc rb
  22  0007  340A        	clr c
  22  0008  1B80     E  	rrc rc
  22  0009  1B80     E  	rrc rb
  22  000A  0700     E  	mov a,rb
  22  000B  0080     R  	mov _adc_16bit[0],a
  22  000C  0700     E  	mov a,rc
  22  000D  0080     R  	mov _adc_16bit[1],a
  23  000E              #line 23 "C:\Users\bobson\Desktop\IR range\BS45F3235_LIB(20200214) - tim\BS45F3235_LIB.c"
  23  000E  0700     E  	mov a,rc
  23  000F  0080     R  	mov _Uart_H[0],a
  24  0010              #line 24 "C:\Users\bobson\Desktop\IR range\BS45F3235_LIB(20200214) - tim\BS45F3235_LIB.c"
  24  0010  0700     E  	mov a,rb
  24  0011  0080     R  	mov _Uart_L[0],a
  25  0012              #line 25 "C:\Users\bobson\Desktop\IR range\BS45F3235_LIB(20200214) - tim\BS45F3235_LIB.c"
  25  0012  339B        	set [27].7
  27  0013              #line 27 "C:\Users\bobson\Desktop\IR range\BS45F3235_LIB(20200214) - tim\BS45F3235_LIB.c"
  27  0013  0700     E  	mov a,rc
  27  0014  009C        	mov [28],a
  27  0015              _L2:
  28  0015              #line 28 "C:\Users\bobson\Desktop\IR range\BS45F3235_LIB(20200214) - tim\BS45F3235_LIB.c"
  28  0015  3C9E        	sz [30].1
  28  0016  2800     R  	jmp _L11
  29  0017              #line 29 "C:\Users\bobson\Desktop\IR range\BS45F3235_LIB(20200214) - tim\BS45F3235_LIB.c"
  29  0017              ;# 29 "C:\Users\bobson\Desktop\IR range\BS45F3235_LIB(20200214) - tim\BS45F3235_LIB.c" 1
  29  0017  0001        	clr wdt
  29  0018  2800     R  	jmp _L2
  29  0019              _L11:
  31  0019              #line 31 "C:\Users\bobson\Desktop\IR range\BS45F3235_LIB(20200214) - tim\BS45F3235_LIB.c"
  31  0019  0700     E  	mov a,rb
  31  001A  009C        	mov [28],a
  31  001B              _L4:
  32  001B              #line 32 "C:\Users\bobson\Desktop\IR range\BS45F3235_LIB(20200214) - tim\BS45F3235_LIB.c"
  32  001B  3C9E        	sz [30].1
  32  001C  2800     R  	jmp _L12
  33  001D              #line 33 "C:\Users\bobson\Desktop\IR range\BS45F3235_LIB(20200214) - tim\BS45F3235_LIB.c"
  33  001D              ;# 33 "C:\Users\bobson\Desktop\IR range\BS45F3235_LIB(20200214) - tim\BS45F3235_LIB.c" 1
  33  001D  0001        	clr wdt
  33  001E  2800     R  	jmp _L4
  33  001F              _L12:
  35  001F              #line 35 "C:\Users\bobson\Desktop\IR range\BS45F3235_LIB(20200214) - tim\BS45F3235_LIB.c"
  35  001F  0F0D        	mov a,13
  35  0020  009C        	mov [28],a
  35  0021              _L6:
  36  0021              #line 36 "C:\Users\bobson\Desktop\IR range\BS45F3235_LIB(20200214) - tim\BS45F3235_LIB.c"
  36  0021  3C9E        	sz [30].1
  36  0022  2800     R  	jmp _L13
"File: BS45F3235_LIB.c  Assembler  Version HGASM0202      Page 3

  37  0023              #line 37 "C:\Users\bobson\Desktop\IR range\BS45F3235_LIB(20200214) - tim\BS45F3235_LIB.c"
  37  0023              ;# 37 "C:\Users\bobson\Desktop\IR range\BS45F3235_LIB(20200214) - tim\BS45F3235_LIB.c" 1
  37  0023  0001        	clr wdt
  37  0024  2800     R  	jmp _L6
  37  0025              _L13:
  39  0025              #line 39 "C:\Users\bobson\Desktop\IR range\BS45F3235_LIB(20200214) - tim\BS45F3235_LIB.c"
  39  0025  0F0A        	mov a,10
  39  0026  009C        	mov [28],a
  40  0027              #line 40 "C:\Users\bobson\Desktop\IR range\BS45F3235_LIB(20200214) - tim\BS45F3235_LIB.c"
  40  0027  2800     R  	jmp _L8
  40  0028              _L9:
  41  0028              #line 41 "C:\Users\bobson\Desktop\IR range\BS45F3235_LIB(20200214) - tim\BS45F3235_LIB.c"
  41  0028              ;# 41 "C:\Users\bobson\Desktop\IR range\BS45F3235_LIB(20200214) - tim\BS45F3235_LIB.c" 1
  41  0028  0001        	clr wdt
  41  0029              _L8:
  40  0029              #line 40 "C:\Users\bobson\Desktop\IR range\BS45F3235_LIB(20200214) - tim\BS45F3235_LIB.c"
  40  0029  389E        	snz [30].1
  40  002A  2800     R  	jmp _L9
  40  002B  0003        	ret
  40  002C              _uart_sent endp
  40  002C              #line 40 "C:\Users\bobson\Desktop\IR range\BS45F3235_LIB(20200214) - tim\BS45F3235_LIB.c"
  40  002C              #pragma debug scope 1 1
  40  002C              ___status equ [10]
  40  002C              ___hircc equ [12]
  40  002C              ___idata equ [24]
  40  002C              ___opdc0 equ [50]
  40  002C              ___pb equ [37]
  40  002C              public _main
  40  002C              #pragma debug scope 3 1
  44  002C              #line 44 "C:\Users\bobson\Desktop\IR range\BS45F3235_LIB(20200214) - tim\BS45F3235_LIB.c"
  44  002C              IFDEF WITH_DEFAULT_STARTUP
  44  002C              extern _main_initial0:near
  44  002C              extern _main_startup:near
  44  002C              ENDIF
  44  002C              
  44  002C              ROMBANK 0 @start
  44  0000              @start .section com_l 'code'
  44  0000              _main_startup1:
  44  0000              @start .section com_e 'code'
  44  0000  2800     R  	jmp _main
  44  0001              
  44  0000              _main .section 'code'
  44  0000              _main proc
  44  0000  0002[           local _main_2 db 2 dup(?)
            00
            ]
  45  0002              #line 45 "C:\Users\bobson\Desktop\IR range\BS45F3235_LIB(20200214) - tim\BS45F3235_LIB.c"
  45  0000  3E8A        	sz [10].5
  45  0001  2800     R  	jmp _L29
  45  0002              _L16:
  47  0002              #line 47 "C:\Users\bobson\Desktop\IR range\BS45F3235_LIB(20200214) - tim\BS45F3235_LIB.c"
  47  0002  3C8C        	sz [12].1
  47  0003  2800     R  	jmp _L30
  48  0004              #line 48 "C:\Users\bobson\Desktop\IR range\BS45F3235_LIB(20200214) - tim\BS45F3235_LIB.c"
  48  0004              ;# 48 "C:\Users\bobson\Desktop\IR range\BS45F3235_LIB(20200214) - tim\BS45F3235_LIB.c" 1
  48  0004              	IF 100>263690
  48  0004              ;# 48 "C:\Users\bobson\Desktop\IR range\BS45F3235_LIB(20200214) - tim\BS45F3235_LIB.c" 1
  48  0004              	ERRMESSAGE 'the value 100of the argument exceeds the maxinum 263690'
  48  0004              	ENDIF
  48  0004              ;# 48 "C:\Users\bobson\Desktop\IR range\BS45F3235_LIB(20200214) - tim\BS45F3235_LIB.c" 1
"File: BS45F3235_LIB.c  Assembler  Version HGASM0202      Page 4

  48  0004              	IF 100<0
  48  0004              ;# 48 "C:\Users\bobson\Desktop\IR range\BS45F3235_LIB(20200214) - tim\BS45F3235_LIB.c" 1
  48  0004              	ERRMESSAGE 'the value 100 of the argument exceeds the mininum 0'
  48  0004              	ENDIF
  48  0004              ;# 48 "C:\Users\bobson\Desktop\IR range\BS45F3235_LIB(20200214) - tim\BS45F3235_LIB.c" 1
  48  0004              	IF 100==0
  48  0004              ;# 48 "C:\Users\bobson\Desktop\IR range\BS45F3235_LIB(20200214) - tim\BS45F3235_LIB.c" 1
  48  0004              	JMP $
  48  0004              	ENDIF
  48  0004              ;# 48 "C:\Users\bobson\Desktop\IR range\BS45F3235_LIB(20200214) - tim\BS45F3235_LIB.c" 1
  48  0004              	IF 100==1
  48  0004              ;# 48 "C:\Users\bobson\Desktop\IR range\BS45F3235_LIB(20200214) - tim\BS45F3235_LIB.c" 1
  48  0004              	NOP
  48  0004              	ENDIF
  48  0004              ;# 48 "C:\Users\bobson\Desktop\IR range\BS45F3235_LIB(20200214) - tim\BS45F3235_LIB.c" 1
  48  0004              	IF 100==2
  48  0004              ;# 48 "C:\Users\bobson\Desktop\IR range\BS45F3235_LIB(20200214) - tim\BS45F3235_LIB.c" 1
  48  0004              	NOP
  48  0004              ;# 48 "C:\Users\bobson\Desktop\IR range\BS45F3235_LIB(20200214) - tim\BS45F3235_LIB.c" 1
  48  0004              	NOP
  48  0004              	ENDIF
  48  0004              ;# 48 "C:\Users\bobson\Desktop\IR range\BS45F3235_LIB(20200214) - tim\BS45F3235_LIB.c" 1
  48  0004              	IF 100==3
  48  0004              ;# 48 "C:\Users\bobson\Desktop\IR range\BS45F3235_LIB(20200214) - tim\BS45F3235_LIB.c" 1
  48  0004              	NOP
  48  0004              ;# 48 "C:\Users\bobson\Desktop\IR range\BS45F3235_LIB(20200214) - tim\BS45F3235_LIB.c" 1
  48  0004              	NOP
  48  0004              ;# 48 "C:\Users\bobson\Desktop\IR range\BS45F3235_LIB(20200214) - tim\BS45F3235_LIB.c" 1
  48  0004              	NOP
  48  0004              	ENDIF
  48  0004              ;# 48 "C:\Users\bobson\Desktop\IR range\BS45F3235_LIB(20200214) - tim\BS45F3235_LIB.c" 1
  48  0004              	IF (100<8) AND (100>3)
  48  0004              ;# 48 "C:\Users\bobson\Desktop\IR range\BS45F3235_LIB(20200214) - tim\BS45F3235_LIB.c" 1
  48  0004              	CALL __DELAY3 + 7 -100
  48  0004              	ENDIF
  48  0004              ;# 48 "C:\Users\bobson\Desktop\IR range\BS45F3235_LIB(20200214) - tim\BS45F3235_LIB.c" 1
  48  0004              	IF (100< 0404h) AND (100>7)
  48  0004              ;# 48 "C:\Users\bobson\Desktop\IR range\BS45F3235_LIB(20200214) - tim\BS45F3235_LIB.c" 1
  48  0004  0F18        	MOV A,100/4-1
  48  0005              ;# 48 "C:\Users\bobson\Desktop\IR range\BS45F3235_LIB(20200214) - tim\BS45F3235_LIB.c" 1
  48  0005  2000     E  	CALL __DELAYX3 + 3 -(100 MOD 4)
  48  0006              	ENDIF
  48  0006              ;# 48 "C:\Users\bobson\Desktop\IR range\BS45F3235_LIB(20200214) - tim\BS45F3235_LIB.c" 1
  48  0006              	IF (100< 0x40B) AND (100> 0403h)
  48  0006              ;# 48 "C:\Users\bobson\Desktop\IR range\BS45F3235_LIB(20200214) - tim\BS45F3235_LIB.c" 1
  48  0006              	MOV A,0 
  48  0006              ;# 48 "C:\Users\bobson\Desktop\IR range\BS45F3235_LIB(20200214) - tim\BS45F3235_LIB.c" 1
  48  0006              	CALL __DELAYX6 + 0x40a -100
  48  0006              	ENDIF
  48  0006              ;# 48 "C:\Users\bobson\Desktop\IR range\BS45F3235_LIB(20200214) - tim\BS45F3235_LIB.c" 1
  48  0006              	IF (100 >= 0x40b) AND ((((100-9)%0402h)/4+1)>256)
  48  0006              ;# 48 "C:\Users\bobson\Desktop\IR range\BS45F3235_LIB(20200214) - tim\BS45F3235_LIB.c" 1
  48  0006              	MOV A,(100-9)/0402h
  48  0006              ;# 48 "C:\Users\bobson\Desktop\IR range\BS45F3235_LIB(20200214) - tim\BS45F3235_LIB.c" 1
  48  0006              	MOV _builtin_holtek_delay_2,A
  48  0006              ;# 48 "C:\Users\bobson\Desktop\IR range\BS45F3235_LIB(20200214) - tim\BS45F3235_LIB.c" 1
  48  0006              	MOV A,0
  48  0006              ;# 48 "C:\Users\bobson\Desktop\IR range\BS45F3235_LIB(20200214) - tim\BS45F3235_LIB.c" 1
  48  0006              	CALL __DELAYY5 +5- (((100-9)%0402h)%6)
  48  0006              	ENDIF
"File: BS45F3235_LIB.c  Assembler  Version HGASM0202      Page 5

  48  0006              ;# 48 "C:\Users\bobson\Desktop\IR range\BS45F3235_LIB(20200214) - tim\BS45F3235_LIB.c" 1
  48  0006              	IF (100 >= 0x40b) AND ((((100-9)%0402h)/4+1)<=256)
  48  0006              ;# 48 "C:\Users\bobson\Desktop\IR range\BS45F3235_LIB(20200214) - tim\BS45F3235_LIB.c" 1
  48  0006              	MOV A,(100-9)/0402h
  48  0006              ;# 48 "C:\Users\bobson\Desktop\IR range\BS45F3235_LIB(20200214) - tim\BS45F3235_LIB.c" 1
  48  0006              	MOV _builtin_holtek_delay_2,A
  48  0006              ;# 48 "C:\Users\bobson\Desktop\IR range\BS45F3235_LIB(20200214) - tim\BS45F3235_LIB.c" 1
  48  0006              	MOV A,((100-9)%0402h)/4+1
  48  0006              ;# 48 "C:\Users\bobson\Desktop\IR range\BS45F3235_LIB(20200214) - tim\BS45F3235_LIB.c" 1
  48  0006              	CALL __DELAYY3 +3-(((100-9)%0402h)%4)
  48  0006              	ENDIF
  48  0006  2800     R  	jmp _L16
  48  0007              _L30:
  49  0007              #line 49 "C:\Users\bobson\Desktop\IR range\BS45F3235_LIB(20200214) - tim\BS45F3235_LIB.c"
  49  0007              ;# 49 "C:\Users\bobson\Desktop\IR range\BS45F3235_LIB(20200214) - tim\BS45F3235_LIB.c" 1
  49  0007              	IF 20000>263690
  49  0007              ;# 49 "C:\Users\bobson\Desktop\IR range\BS45F3235_LIB(20200214) - tim\BS45F3235_LIB.c" 1
  49  0007              	ERRMESSAGE 'the value 20000of the argument exceeds the maxinum 263690'
  49  0007              	ENDIF
  49  0007              ;# 49 "C:\Users\bobson\Desktop\IR range\BS45F3235_LIB(20200214) - tim\BS45F3235_LIB.c" 1
  49  0007              	IF 20000<0
  49  0007              ;# 49 "C:\Users\bobson\Desktop\IR range\BS45F3235_LIB(20200214) - tim\BS45F3235_LIB.c" 1
  49  0007              	ERRMESSAGE 'the value 20000 of the argument exceeds the mininum 0'
  49  0007              	ENDIF
  49  0007              ;# 49 "C:\Users\bobson\Desktop\IR range\BS45F3235_LIB(20200214) - tim\BS45F3235_LIB.c" 1
  49  0007              	IF 20000==0
  49  0007              ;# 49 "C:\Users\bobson\Desktop\IR range\BS45F3235_LIB(20200214) - tim\BS45F3235_LIB.c" 1
  49  0007              	JMP $
  49  0007              	ENDIF
  49  0007              ;# 49 "C:\Users\bobson\Desktop\IR range\BS45F3235_LIB(20200214) - tim\BS45F3235_LIB.c" 1
  49  0007              	IF 20000==1
  49  0007              ;# 49 "C:\Users\bobson\Desktop\IR range\BS45F3235_LIB(20200214) - tim\BS45F3235_LIB.c" 1
  49  0007              	NOP
  49  0007              	ENDIF
  49  0007              ;# 49 "C:\Users\bobson\Desktop\IR range\BS45F3235_LIB(20200214) - tim\BS45F3235_LIB.c" 1
  49  0007              	IF 20000==2
  49  0007              ;# 49 "C:\Users\bobson\Desktop\IR range\BS45F3235_LIB(20200214) - tim\BS45F3235_LIB.c" 1
  49  0007              	NOP
  49  0007              ;# 49 "C:\Users\bobson\Desktop\IR range\BS45F3235_LIB(20200214) - tim\BS45F3235_LIB.c" 1
  49  0007              	NOP
  49  0007              	ENDIF
  49  0007              ;# 49 "C:\Users\bobson\Desktop\IR range\BS45F3235_LIB(20200214) - tim\BS45F3235_LIB.c" 1
  49  0007              	IF 20000==3
  49  0007              ;# 49 "C:\Users\bobson\Desktop\IR range\BS45F3235_LIB(20200214) - tim\BS45F3235_LIB.c" 1
  49  0007              	NOP
  49  0007              ;# 49 "C:\Users\bobson\Desktop\IR range\BS45F3235_LIB(20200214) - tim\BS45F3235_LIB.c" 1
  49  0007              	NOP
  49  0007              ;# 49 "C:\Users\bobson\Desktop\IR range\BS45F3235_LIB(20200214) - tim\BS45F3235_LIB.c" 1
  49  0007              	NOP
  49  0007              	ENDIF
  49  0007              ;# 49 "C:\Users\bobson\Desktop\IR range\BS45F3235_LIB(20200214) - tim\BS45F3235_LIB.c" 1
  49  0007              	IF (20000<8) AND (20000>3)
  49  0007              ;# 49 "C:\Users\bobson\Desktop\IR range\BS45F3235_LIB(20200214) - tim\BS45F3235_LIB.c" 1
  49  0007              	CALL __DELAY3 + 7 -20000
  49  0007              	ENDIF
  49  0007              ;# 49 "C:\Users\bobson\Desktop\IR range\BS45F3235_LIB(20200214) - tim\BS45F3235_LIB.c" 1
  49  0007              	IF (20000< 0404h) AND (20000>7)
  49  0007              ;# 49 "C:\Users\bobson\Desktop\IR range\BS45F3235_LIB(20200214) - tim\BS45F3235_LIB.c" 1
  49  0007              	MOV A,20000/4-1
  49  0007              ;# 49 "C:\Users\bobson\Desktop\IR range\BS45F3235_LIB(20200214) - tim\BS45F3235_LIB.c" 1
"File: BS45F3235_LIB.c  Assembler  Version HGASM0202      Page 6

  49  0007              	CALL __DELAYX3 + 3 -(20000 MOD 4)
  49  0007              	ENDIF
  49  0007              ;# 49 "C:\Users\bobson\Desktop\IR range\BS45F3235_LIB(20200214) - tim\BS45F3235_LIB.c" 1
  49  0007              	IF (20000< 0x40B) AND (20000> 0403h)
  49  0007              ;# 49 "C:\Users\bobson\Desktop\IR range\BS45F3235_LIB(20200214) - tim\BS45F3235_LIB.c" 1
  49  0007              	MOV A,0 
  49  0007              ;# 49 "C:\Users\bobson\Desktop\IR range\BS45F3235_LIB(20200214) - tim\BS45F3235_LIB.c" 1
  49  0007              	CALL __DELAYX6 + 0x40a -20000
  49  0007              	ENDIF
  49  0007              ;# 49 "C:\Users\bobson\Desktop\IR range\BS45F3235_LIB(20200214) - tim\BS45F3235_LIB.c" 1
  49  0007              	IF (20000 >= 0x40b) AND ((((20000-9)%0402h)/4+1)>256)
  49  0007              ;# 49 "C:\Users\bobson\Desktop\IR range\BS45F3235_LIB(20200214) - tim\BS45F3235_LIB.c" 1
  49  0007              	MOV A,(20000-9)/0402h
  49  0007              ;# 49 "C:\Users\bobson\Desktop\IR range\BS45F3235_LIB(20200214) - tim\BS45F3235_LIB.c" 1
  49  0007              	MOV _builtin_holtek_delay_2,A
  49  0007              ;# 49 "C:\Users\bobson\Desktop\IR range\BS45F3235_LIB(20200214) - tim\BS45F3235_LIB.c" 1
  49  0007              	MOV A,0
  49  0007              ;# 49 "C:\Users\bobson\Desktop\IR range\BS45F3235_LIB(20200214) - tim\BS45F3235_LIB.c" 1
  49  0007              	CALL __DELAYY5 +5- (((20000-9)%0402h)%6)
  49  0007              	ENDIF
  49  0007              ;# 49 "C:\Users\bobson\Desktop\IR range\BS45F3235_LIB(20200214) - tim\BS45F3235_LIB.c" 1
  49  0007              	IF (20000 >= 0x40b) AND ((((20000-9)%0402h)/4+1)<=256)
  49  0007              ;# 49 "C:\Users\bobson\Desktop\IR range\BS45F3235_LIB(20200214) - tim\BS45F3235_LIB.c" 1
  49  0007  0F13        	MOV A,(20000-9)/0402h
  49  0008              ;# 49 "C:\Users\bobson\Desktop\IR range\BS45F3235_LIB(20200214) - tim\BS45F3235_LIB.c" 1
  49  0008  0080     E  	MOV _builtin_holtek_delay_2,A
  49  0009              ;# 49 "C:\Users\bobson\Desktop\IR range\BS45F3235_LIB(20200214) - tim\BS45F3235_LIB.c" 1
  49  0009  0F7D        	MOV A,((20000-9)%0402h)/4+1
  49  000A              ;# 49 "C:\Users\bobson\Desktop\IR range\BS45F3235_LIB(20200214) - tim\BS45F3235_LIB.c" 1
  49  000A  2000     E  	CALL __DELAYY3 +3-(((20000-9)%0402h)%4)
  49  000B              	ENDIF
  51  000B              #line 51 "C:\Users\bobson\Desktop\IR range\BS45F3235_LIB(20200214) - tim\BS45F3235_LIB.c"
  51  000B  2000     E  	call _clear_ram
  52  000C              #line 52 "C:\Users\bobson\Desktop\IR range\BS45F3235_LIB(20200214) - tim\BS45F3235_LIB.c"
  52  000C  2000     E  	call _initial
  53  000D              #line 53 "C:\Users\bobson\Desktop\IR range\BS45F3235_LIB(20200214) - tim\BS45F3235_LIB.c"
  53  000D  0F0A        	mov a,10
  53  000E  0098        	mov [24],a
  54  000F              #line 54 "C:\Users\bobson\Desktop\IR range\BS45F3235_LIB(20200214) - tim\BS45F3235_LIB.c"
  54  000F  3332        	set [50].6
  54  0010  2800     R  	jmp _L18
  54  0011              _L29:
  58  0011              #line 58 "C:\Users\bobson\Desktop\IR range\BS45F3235_LIB(20200214) - tim\BS45F3235_LIB.c"
  58  0011  368A        	clr [10].5
  59  0012              #line 59 "C:\Users\bobson\Desktop\IR range\BS45F3235_LIB(20200214) - tim\BS45F3235_LIB.c"
  59  0012  2000     E  	call _wake_set
  59  0013              _L18:
  63  0013              #line 63 "C:\Users\bobson\Desktop\IR range\BS45F3235_LIB(20200214) - tim\BS45F3235_LIB.c"
  63  0013              ;# 63 "C:\Users\bobson\Desktop\IR range\BS45F3235_LIB(20200214) - tim\BS45F3235_LIB.c" 1
  63  0013  0001        	clr wdt
  65  0014              #line 65 "C:\Users\bobson\Desktop\IR range\BS45F3235_LIB(20200214) - tim\BS45F3235_LIB.c"
  65  0014  30A5        	set [37].1
  66  0015              #line 66 "C:\Users\bobson\Desktop\IR range\BS45F3235_LIB(20200214) - tim\BS45F3235_LIB.c"
  66  0015  3398        	set [24].7
  67  0016              #line 67 "C:\Users\bobson\Desktop\IR range\BS45F3235_LIB(20200214) - tim\BS45F3235_LIB.c"
  67  0016              ;# 67 "C:\Users\bobson\Desktop\IR range\BS45F3235_LIB(20200214) - tim\BS45F3235_LIB.c" 1
  67  0016              	IF 260>263690
  67  0016              ;# 67 "C:\Users\bobson\Desktop\IR range\BS45F3235_LIB(20200214) - tim\BS45F3235_LIB.c" 1
  67  0016              	ERRMESSAGE 'the value 260of the argument exceeds the maxinum 263690'
  67  0016              	ENDIF
"File: BS45F3235_LIB.c  Assembler  Version HGASM0202      Page 7

  67  0016              ;# 67 "C:\Users\bobson\Desktop\IR range\BS45F3235_LIB(20200214) - tim\BS45F3235_LIB.c" 1
  67  0016              	IF 260<0
  67  0016              ;# 67 "C:\Users\bobson\Desktop\IR range\BS45F3235_LIB(20200214) - tim\BS45F3235_LIB.c" 1
  67  0016              	ERRMESSAGE 'the value 260 of the argument exceeds the mininum 0'
  67  0016              	ENDIF
  67  0016              ;# 67 "C:\Users\bobson\Desktop\IR range\BS45F3235_LIB(20200214) - tim\BS45F3235_LIB.c" 1
  67  0016              	IF 260==0
  67  0016              ;# 67 "C:\Users\bobson\Desktop\IR range\BS45F3235_LIB(20200214) - tim\BS45F3235_LIB.c" 1
  67  0016              	JMP $
  67  0016              	ENDIF
  67  0016              ;# 67 "C:\Users\bobson\Desktop\IR range\BS45F3235_LIB(20200214) - tim\BS45F3235_LIB.c" 1
  67  0016              	IF 260==1
  67  0016              ;# 67 "C:\Users\bobson\Desktop\IR range\BS45F3235_LIB(20200214) - tim\BS45F3235_LIB.c" 1
  67  0016              	NOP
  67  0016              	ENDIF
  67  0016              ;# 67 "C:\Users\bobson\Desktop\IR range\BS45F3235_LIB(20200214) - tim\BS45F3235_LIB.c" 1
  67  0016              	IF 260==2
  67  0016              ;# 67 "C:\Users\bobson\Desktop\IR range\BS45F3235_LIB(20200214) - tim\BS45F3235_LIB.c" 1
  67  0016              	NOP
  67  0016              ;# 67 "C:\Users\bobson\Desktop\IR range\BS45F3235_LIB(20200214) - tim\BS45F3235_LIB.c" 1
  67  0016              	NOP
  67  0016              	ENDIF
  67  0016              ;# 67 "C:\Users\bobson\Desktop\IR range\BS45F3235_LIB(20200214) - tim\BS45F3235_LIB.c" 1
  67  0016              	IF 260==3
  67  0016              ;# 67 "C:\Users\bobson\Desktop\IR range\BS45F3235_LIB(20200214) - tim\BS45F3235_LIB.c" 1
  67  0016              	NOP
  67  0016              ;# 67 "C:\Users\bobson\Desktop\IR range\BS45F3235_LIB(20200214) - tim\BS45F3235_LIB.c" 1
  67  0016              	NOP
  67  0016              ;# 67 "C:\Users\bobson\Desktop\IR range\BS45F3235_LIB(20200214) - tim\BS45F3235_LIB.c" 1
  67  0016              	NOP
  67  0016              	ENDIF
  67  0016              ;# 67 "C:\Users\bobson\Desktop\IR range\BS45F3235_LIB(20200214) - tim\BS45F3235_LIB.c" 1
  67  0016              	IF (260<8) AND (260>3)
  67  0016              ;# 67 "C:\Users\bobson\Desktop\IR range\BS45F3235_LIB(20200214) - tim\BS45F3235_LIB.c" 1
  67  0016              	CALL __DELAY3 + 7 -260
  67  0016              	ENDIF
  67  0016              ;# 67 "C:\Users\bobson\Desktop\IR range\BS45F3235_LIB(20200214) - tim\BS45F3235_LIB.c" 1
  67  0016              	IF (260< 0404h) AND (260>7)
  67  0016              ;# 67 "C:\Users\bobson\Desktop\IR range\BS45F3235_LIB(20200214) - tim\BS45F3235_LIB.c" 1
  67  0016  0F40        	MOV A,260/4-1
  67  0017              ;# 67 "C:\Users\bobson\Desktop\IR range\BS45F3235_LIB(20200214) - tim\BS45F3235_LIB.c" 1
  67  0017  2000     E  	CALL __DELAYX3 + 3 -(260 MOD 4)
  67  0018              	ENDIF
  67  0018              ;# 67 "C:\Users\bobson\Desktop\IR range\BS45F3235_LIB(20200214) - tim\BS45F3235_LIB.c" 1
  67  0018              	IF (260< 0x40B) AND (260> 0403h)
  67  0018              ;# 67 "C:\Users\bobson\Desktop\IR range\BS45F3235_LIB(20200214) - tim\BS45F3235_LIB.c" 1
  67  0018              	MOV A,0 
  67  0018              ;# 67 "C:\Users\bobson\Desktop\IR range\BS45F3235_LIB(20200214) - tim\BS45F3235_LIB.c" 1
  67  0018              	CALL __DELAYX6 + 0x40a -260
  67  0018              	ENDIF
  67  0018              ;# 67 "C:\Users\bobson\Desktop\IR range\BS45F3235_LIB(20200214) - tim\BS45F3235_LIB.c" 1
  67  0018              	IF (260 >= 0x40b) AND ((((260-9)%0402h)/4+1)>256)
  67  0018              ;# 67 "C:\Users\bobson\Desktop\IR range\BS45F3235_LIB(20200214) - tim\BS45F3235_LIB.c" 1
  67  0018              	MOV A,(260-9)/0402h
  67  0018              ;# 67 "C:\Users\bobson\Desktop\IR range\BS45F3235_LIB(20200214) - tim\BS45F3235_LIB.c" 1
  67  0018              	MOV _builtin_holtek_delay_2,A
  67  0018              ;# 67 "C:\Users\bobson\Desktop\IR range\BS45F3235_LIB(20200214) - tim\BS45F3235_LIB.c" 1
  67  0018              	MOV A,0
  67  0018              ;# 67 "C:\Users\bobson\Desktop\IR range\BS45F3235_LIB(20200214) - tim\BS45F3235_LIB.c" 1
  67  0018              	CALL __DELAYY5 +5- (((260-9)%0402h)%6)
"File: BS45F3235_LIB.c  Assembler  Version HGASM0202      Page 8

  67  0018              	ENDIF
  67  0018              ;# 67 "C:\Users\bobson\Desktop\IR range\BS45F3235_LIB(20200214) - tim\BS45F3235_LIB.c" 1
  67  0018              	IF (260 >= 0x40b) AND ((((260-9)%0402h)/4+1)<=256)
  67  0018              ;# 67 "C:\Users\bobson\Desktop\IR range\BS45F3235_LIB(20200214) - tim\BS45F3235_LIB.c" 1
  67  0018              	MOV A,(260-9)/0402h
  67  0018              ;# 67 "C:\Users\bobson\Desktop\IR range\BS45F3235_LIB(20200214) - tim\BS45F3235_LIB.c" 1
  67  0018              	MOV _builtin_holtek_delay_2,A
  67  0018              ;# 67 "C:\Users\bobson\Desktop\IR range\BS45F3235_LIB(20200214) - tim\BS45F3235_LIB.c" 1
  67  0018              	MOV A,((260-9)%0402h)/4+1
  67  0018              ;# 67 "C:\Users\bobson\Desktop\IR range\BS45F3235_LIB(20200214) - tim\BS45F3235_LIB.c" 1
  67  0018              	CALL __DELAYY3 +3-(((260-9)%0402h)%4)
  67  0018              	ENDIF
  68  0018              #line 68 "C:\Users\bobson\Desktop\IR range\BS45F3235_LIB(20200214) - tim\BS45F3235_LIB.c"
  68  0018  2000     E  	call _opa_adc
  69  0019              #line 69 "C:\Users\bobson\Desktop\IR range\BS45F3235_LIB(20200214) - tim\BS45F3235_LIB.c"
  69  0019  3798        	clr [24].7
  71  001A              #line 71 "C:\Users\bobson\Desktop\IR range\BS45F3235_LIB(20200214) - tim\BS45F3235_LIB.c"
  71  001A  0700     R  	mov a,_i[0]
  71  001B  0080     E  	mov ra,a
  71  001C  0700     E  	mov a,ra
  71  001D  0080     E  	mov rb,a
  71  001E  1F00     E  	clr rc
  71  001F  340A        	clr c
  71  0020  1A80     E  	rlc rb
  71  0021  1A80     E  	rlc rc
  71  0022  0F00     R  	mov a,low offset _Status
  71  0023  0300     E  	add a,rb
  71  0024  0083        	mov mp,a
  71  0025  0F00     R  	mov a,high offset _Status
  71  0026  1300     E  	adc a,rc
  71  0027  0087        	mov sbp,a
  71  0028  0707        	mov a,sbp
  71  0029  0084        	mov bp,a
  71  002A  0700     R  	mov a,_adc_16bit[0]
  71  002B  0082        	mov ir,a
  71  002C  1483        	inc mp
  71  002D  0700     R  	mov a,_adc_16bit[1]
  71  002E  0082        	mov ir,a
  72  002F              #line 72 "C:\Users\bobson\Desktop\IR range\BS45F3235_LIB(20200214) - tim\BS45F3235_LIB.c"
  72  002F  0F08        	mov a,8
  72  0030  0200     E  	sub a,ra
  72  0031  380A        	snz c
  72  0032  2800     R  	jmp _L20
  74  0033              #line 74 "C:\Users\bobson\Desktop\IR range\BS45F3235_LIB(20200214) - tim\BS45F3235_LIB.c"
  74  0033  1400     E  	inca ra
  74  0034  0080     R  	mov _i[0],a
  74  0035  2800     R  	jmp _L21
  74  0036              _L20:
  78  0036              #line 78 "C:\Users\bobson\Desktop\IR range\BS45F3235_LIB(20200214) - tim\BS45F3235_LIB.c"
  78  0036  1F00     R  	clr _i[0]
  78  0037              _L21:
  81  0037              #line 81 "C:\Users\bobson\Desktop\IR range\BS45F3235_LIB(20200214) - tim\BS45F3235_LIB.c"
  81  0037  0700     R  	mov a,_M_1sec[0]
  81  0038  0080     E  	mov ra,a
  81  0039  0F3D        	mov a,61
  81  003A  0200     E  	sub a,ra
  81  003B  3C0A        	sz c
  81  003C  2800     R  	jmp _L22
  83  003D              #line 83 "C:\Users\bobson\Desktop\IR range\BS45F3235_LIB(20200214) - tim\BS45F3235_LIB.c"
  83  003D  1F00     R  	clr _M_1sec[0]
"File: BS45F3235_LIB.c  Assembler  Version HGASM0202      Page 9

  84  003E              #line 84 "C:\Users\bobson\Desktop\IR range\BS45F3235_LIB(20200214) - tim\BS45F3235_LIB.c"
  84  003E  1F00     R  	clr _Status_Max[0]
  84  003F  1F00     R  	clr _Status_Max[1]
  85  0040              #line 85 "C:\Users\bobson\Desktop\IR range\BS45F3235_LIB(20200214) - tim\BS45F3235_LIB.c"
  85  0040  1F80     R  	set _Status_Min[0]
  85  0041  1F80     R  	set _Status_Min[1]
  85  0042  0700     R  	mov a,_adc_16bit[0]
  85  0043  0080     R  	mov _main_2[0],a
  85  0044  0700     R  	mov a,_adc_16bit[1]
  85  0045  0080     R  	mov _main_2[1],a
  85  0046  1F00     E  	clr rd
  85  0047  1F00     E  	clr re
  85  0048  1F80     E  	set rf
  85  0049  1F80     E  	set rg
  86  004A              #line 86 "C:\Users\bobson\Desktop\IR range\BS45F3235_LIB(20200214) - tim\BS45F3235_LIB.c"
  86  004A  1F00     E  	clr ra
  86  004B              _L23:
  86  004B  0F09        	mov a,9
  86  004C  0200     E  	sub a,ra
  86  004D  380A        	snz c
  86  004E  2800     R  	jmp _L31
  88  004F              #line 88 "C:\Users\bobson\Desktop\IR range\BS45F3235_LIB(20200214) - tim\BS45F3235_LIB.c"
  88  004F  0700     E  	mov a,ra
  88  0050  0080     E  	mov rb,a
  88  0051  1F00     E  	clr rc
  88  0052  340A        	clr c
  88  0053  1A80     E  	rlc rb
  88  0054  1A80     E  	rlc rc
  88  0055  0F00     R  	mov a,low offset _Status
  88  0056  0300     E  	add a,rb
  88  0057  0083        	mov mp,a
  88  0058  0F00     R  	mov a,high offset _Status
  88  0059  1300     E  	adc a,rc
  88  005A  0087        	mov sbp,a
  88  005B  2000     E  	call _Crom2Prom
  88  005C  0080     E  	mov rb,a
  88  005D  2000     E  	call _Crom2PromNext
  88  005E  0080     E  	mov rc,a
  88  005F  0700     E  	mov a,rd
  88  0060  0200     E  	sub a,rb
  88  0061  0700     E  	mov a,re
  88  0062  1200     E  	sbc a,rc
  88  0063  3C0A        	sz c
  88  0064  2800     R  	jmp _L24
  88  0065  0700     E  	mov a,rb
  88  0066  0080     E  	mov rd,a
  88  0067  0700     E  	mov a,rc
  88  0068  0080     E  	mov re,a
  88  0069              _L24:
  88  0069  0700     E  	mov a,rb
  88  006A  0200     E  	sub a,rf
  88  006B  0700     E  	mov a,rc
  88  006C  1200     E  	sbc a,rg
  88  006D  3C0A        	sz c
  88  006E  2800     R  	jmp _L28
  88  006F  0700     E  	mov a,rb
  88  0070  0080     E  	mov rf,a
  88  0071  0700     E  	mov a,rc
  88  0072  0080     E  	mov rg,a
  88  0073              _L28:
"File: BS45F3235_LIB.c  Assembler  Version HGASM0202      Page 10

  88  0073  1480     E  	inc ra
  92  0074              #line 92 "C:\Users\bobson\Desktop\IR range\BS45F3235_LIB(20200214) - tim\BS45F3235_LIB.c"
  92  0074  0700     E  	mov a,rb
  92  0075  0380     R  	addm a,_main_2[0]
  92  0076  0700     E  	mov a,rc
  92  0077  1380     R  	adcm a,_main_2[1]
  92  0078  2800     R  	jmp _L23
  92  0079              _L31:
  92  0079  0700     E  	mov a,ra
  92  007A  0080     R  	mov _i[0],a
  92  007B  0700     E  	mov a,rd
  92  007C  0080     R  	mov _Status_Max[0],a
  92  007D  0700     E  	mov a,re
  92  007E  0080     R  	mov _Status_Max[1],a
  92  007F  0700     E  	mov a,rf
  92  0080  0080     R  	mov _Status_Min[0],a
  92  0081  0700     E  	mov a,rg
  92  0082  0080     R  	mov _Status_Min[1],a
  92  0083  0700     E  	mov a,rf
  92  0084  0380     E  	addm a,rd
  92  0085  0700     E  	mov a,rg
  92  0086  1380     E  	adcm a,re
  94  0087              #line 94 "C:\Users\bobson\Desktop\IR range\BS45F3235_LIB(20200214) - tim\BS45F3235_LIB.c"
  94  0087  0700     R  	mov a,_main_2[0]
  94  0088  0280     E  	subm a,rd
  94  0089  0700     R  	mov a,_main_2[1]
  94  008A  1280     E  	sbcm a,re
  95  008B              #line 95 "C:\Users\bobson\Desktop\IR range\BS45F3235_LIB(20200214) - tim\BS45F3235_LIB.c"
  95  008B  0700     E  	mov a,rd
  95  008C  0080     E  	mov ra,a
  95  008D  0700     E  	mov a,re
  95  008E  0080     E  	mov rb,a
  95  008F  0F03        	mov a,3
  95  0090              _LI1:
  95  0090  340A        	clr c
  95  0091  1B80     E  	rrc rb
  95  0092  1B80     E  	rrc ra
  95  0093  1785        	sdz acc
  95  0094  2800     R  	jmp _LI1
  95  0095  0700     E  	mov a,ra
  95  0096  0080     R  	mov _adc_16bit[0],a
  95  0097  0700     E  	mov a,rb
  95  0098  0080     R  	mov _adc_16bit[1],a
  96  0099              #line 96 "C:\Users\bobson\Desktop\IR range\BS45F3235_LIB(20200214) - tim\BS45F3235_LIB.c"
  96  0099  2000     R  	call _uart_sent
  96  009A  2800     R  	jmp _L27
  96  009B              _L22:
  99  009B              #line 99 "C:\Users\bobson\Desktop\IR range\BS45F3235_LIB(20200214) - tim\BS45F3235_LIB.c"
  99  009B  1400     E  	inca ra
  99  009C  0080     R  	mov _M_1sec[0],a
  99  009D              _L27:
 103  009D              #line 103 "C:\Users\bobson\Desktop\IR range\BS45F3235_LIB(20200214) - tim\BS45F3235_LIB.c"
 103  009D  2000     E  	call _halt_set
 104  009E              #line 104 "C:\Users\bobson\Desktop\IR range\BS45F3235_LIB(20200214) - tim\BS45F3235_LIB.c"
 104  009E              ;# 104 "C:\Users\bobson\Desktop\IR range\BS45F3235_LIB(20200214) - tim\BS45F3235_LIB.c" 1
 104  009E  0002        	halt
 108  009F              #line 108 "C:\Users\bobson\Desktop\IR range\BS45F3235_LIB(20200214) - tim\BS45F3235_LIB.c"
 108  009F  2800     R  	jmp _L18
 108  00A0  2800     R  	jmp $
 108  00A1              _main endp
"File: BS45F3235_LIB.c  Assembler  Version HGASM0202      Page 11

 108  00A1              
 108  00A1              @dummy endp
 108  00A1              
 108  00A1              #line 108 "C:\Users\bobson\Desktop\IR range\BS45F3235_LIB(20200214) - tim\BS45F3235_LIB.c"
 108  00A1              #pragma debug scope 1 1
   8  00A1              #line 8 "C:\Users\bobson\Desktop\IR range\BS45F3235_LIB(20200214) - tim\BS45F3235_LIB.c"
   8  00A1              public _i
   8  0000              @HCCINIT0 .section 'data'
   8  0000              _i	db 0
   8  0001              #pragma debug variable 8 1 _i "i"
   8  0001              
   8  0000              @HCCINIT .section 'data'
   8  0000              #line 8 "C:\Users\bobson\Desktop\IR range\BS45F3235_LIB(20200214) - tim\BS45F3235_LIB.c"
   8  0000              public _M_1sec
   8  0001              @HCCINIT0 .section 'data'
   8  0001              _M_1sec	db 0
   8  0002              #pragma debug variable 8 1 _M_1sec "M_1sec"
   8  0002              
   8  0000              @HCCINIT .section 'data'
   8  0000              #line 8 "C:\Users\bobson\Desktop\IR range\BS45F3235_LIB(20200214) - tim\BS45F3235_LIB.c"
   8  0000              public _Uart_H
   8  0002              @HCCINIT0 .section 'data'
   8  0002              _Uart_H	db 0
   8  0003              #pragma debug variable 8 1 _Uart_H "Uart_H"
   8  0003              
   8  0000              @HCCINIT .section 'data'
   8  0000              #line 8 "C:\Users\bobson\Desktop\IR range\BS45F3235_LIB(20200214) - tim\BS45F3235_LIB.c"
   8  0000              public _Uart_L
   8  0003              @HCCINIT0 .section 'data'
   8  0003              _Uart_L	db 0
   8  0004              #pragma debug variable 8 1 _Uart_L "Uart_L"
   8  0004              
   8  0000              @HCCINIT .section 'data'
   7  0000              #line 7 "C:\Users\bobson\Desktop\IR range\BS45F3235_LIB(20200214) - tim\BS45F3235_LIB.c"
   7  0000              public _Status_Min
   7  0004              @HCCINIT0 .section 'data'
   7  0004  0002[       _Status_Min	db 2 dup(0)
            00
            ]
   7  0006              #pragma debug variable 12 1 _Status_Min "Status_Min"
   7  0006              
   7  0000              @HCCINIT .section 'data'
   7  0000              #line 7 "C:\Users\bobson\Desktop\IR range\BS45F3235_LIB(20200214) - tim\BS45F3235_LIB.c"
   7  0000              public _Status_Max
   7  0006              @HCCINIT0 .section 'data'
   7  0006  0002[       _Status_Max	db 2 dup(0)
            00
            ]
   7  0008              #pragma debug variable 12 1 _Status_Max "Status_Max"
   7  0008              
   7  0000              @HCCINIT .section 'data'
   7  0000              #line 7 "C:\Users\bobson\Desktop\IR range\BS45F3235_LIB(20200214) - tim\BS45F3235_LIB.c"
   7  0000              public _Status
   7  0008              @HCCINIT0 .section 'data'
   7  0008  0014[       _Status	db 20 dup(0)
            00
            ]
   7  001C              #pragma debug array 42 12 10 1
   7  001C              #pragma debug array 42 12 10 1
   7  001C              #pragma debug variable 42 1 _Status "Status"
"File: BS45F3235_LIB.c  Assembler  Version HGASM0202      Page 12

   7  001C              
   7  0000              @HCCINIT .section 'data'
   7  0000              #line 7 "C:\Users\bobson\Desktop\IR range\BS45F3235_LIB(20200214) - tim\BS45F3235_LIB.c"
   7  0000              public _adc_16bit
   7  001C              @HCCINIT0 .section 'data'
   7  001C  0002[       _adc_16bit	db 2 dup(0)
            00
            ]
   7  001E              #pragma debug variable 12 1 _adc_16bit "adc_16bit"
   7  001E              
   7  0000              @HCCINIT .section 'data'
   5  0000              #line 5 "C:\Users\bobson\Desktop\IR range\BS45F3235_LIB(20200214) - tim\BS45F3235_LIB.c"
   5  0000              public _Flag1
   5  001E              @HCCINIT0 .section 'data'
   5  001E              _Flag1	db 0
   5  001F              #pragma debug struct_end
   5  001F              #pragma debug struct_end
   5  001F              #pragma debug variable 43 1 _Flag1 "Flag1"
   5  001F              
   5  0000              @HCCINIT .section 'data'
   5  0000              #pragma debug struct_end
   5  0000              #pragma debug struct_end
   5  0000              #pragma debug union_end
   5  0000              #pragma debug union_end
   5  0000              #pragma debug variable 45 1 ___status "__status" 1
   5  0000              #pragma debug struct_end
   5  0000              #pragma debug struct_end
   5  0000              #pragma debug union_end
   5  0000              #pragma debug union_end
   5  0000              #pragma debug variable 47 1 ___hircc "__hircc" 1
   5  0000              #pragma debug struct_end
   5  0000              #pragma debug struct_end
   5  0000              #pragma debug union_end
   5  0000              #pragma debug union_end
   5  0000              #pragma debug variable 49 1 ___idata "__idata" 1
   5  0000              #pragma debug struct_end
   5  0000              #pragma debug struct_end
   5  0000              #pragma debug union_end
   5  0000              #pragma debug union_end
   5  0000              #pragma debug variable 51 1 ___uucr2 "__uucr2" 1
   5  0000              #pragma debug struct_end
   5  0000              #pragma debug struct_end
   5  0000              #pragma debug union_end
   5  0000              #pragma debug union_end
   5  0000              #pragma debug variable 53 1 ___utxr_rxr "__utxr_rxr" 1
   5  0000              #pragma debug struct_end
   5  0000              #pragma debug struct_end
   5  0000              #pragma debug union_end
   5  0000              #pragma debug union_end
   5  0000              #pragma debug variable 55 1 ___uusr "__uusr" 1
   5  0000              #pragma debug struct_end
   5  0000              #pragma debug struct_end
   5  0000              #pragma debug union_end
   5  0000              #pragma debug union_end
   5  0000              #pragma debug variable 57 1 ___pb "__pb" 1
   5  0000              #pragma debug struct_end
   5  0000              #pragma debug struct_end
   5  0000              #pragma debug union_end
   5  0000              #pragma debug union_end
   5  0000              #pragma debug variable 59 1 ___opdc0 "__opdc0" 1
"File: BS45F3235_LIB.c  Assembler  Version HGASM0202      Page 13

  44  0000              #line 44 "C:\Users\bobson\Desktop\IR range\BS45F3235_LIB(20200214) - tim\BS45F3235_LIB.c"
  44  0000              @code .section at 0 'code'
  44  0000  2800     R  	jmp _main_startup1
  44  0001              
  44  0001              extern _clear_ram:near
  44  0001              extern _initial:near
  44  0001              extern _wake_set:near
  44  0001              extern _opa_adc:near
  44  0001              extern _halt_set:near
  44  0001              
  44  0001              ; 
  44  0001              ; Generated by holtek-gcc v3.19, Tue Mar 10 14:39:39 2020
  44  0001              ; Rebuild 115
  44  0001              ; end of file


        0 Errors, 0