"File: initial.c     Assembler  Version HGASM0202      Page 1


   1  0000              ; Generated by holtek-gcc v3.19, Fri Mar 20 15:19:53 2020
   2  0000              ; 
   3  0000              ; Configuration:
   4  0000              ;       without long instruction
   5  0000              ;       Single ROM, Multi-RAM
   6  0000              ;       bits_per_rom_unit:14
   7  0000              ;       with mp1
   8  0000              ;       with tbhp, address(0x1f)
   9  0000              ;          Use ret-const
  10  0000              ;       
  11  0000              ;       
  12  0000              ;       
  13  0000              ; use 'tabrdc' instead of 'tabrd'
  14  0000              ;       
  15  0000              
  16  0000              #pragma translator "holtek-gcc 4.6.4" "3.19" "build 20130711"
  17  0000              ; Rebuild 718
  18  0000              
  19  0000              ir equ [2]
  20  0000              mp equ [3]
  21  0000              sbp equ [7]
  22  0000              acc equ [5]
  23  0000              bp equ [4]
  24  0000              status equ [10]
  25  0000              c equ [10].0
  26  0000              ac equ [10].1
  27  0000              z equ [10].2
  28  0000              ov equ [10].3
  29  0000              intc equ [11]
  30  0000              
  31  0000              extern ra:byte
  32  0000              extern rb:byte
  33  0000              extern rc:byte
  34  0000              extern rd:byte
  35  0000              extern re:byte
  36  0000              extern rf:byte
  37  0000              extern rg:byte
  38  0000              extern rh:byte
  39  0000              extern _Crom2Prom:near
  40  0000              extern _Crom2PromNext:near
  41  0000              
  42  0000              RAMBANK 0 @HCCINIT, @HCCINIT0
  43  0000              
  44  0000              RAMBANK 0 @BITDATASEC, @BITDATASEC1
  45  0000              @HCCINIT	.section 'data'
  46  0000              @HCCINIT0	.section 'data'
  47  0000              @BITDATASEC	 .section 'data'
  48  0000              @BITDATASEC1	 .section 'data'
  49  0000              
  50  0000              #pragma debug scope 1 1
  51  0000              	extern __DELAY3:near
  52  0000              	extern __DELAYX3:near
  53  0000              	extern __DELAYX6:near
  54  0000              	extern __DELAYY5:near
  55  0000              	extern __DELAYY3:near
  56  0000              	extern _builtin_holtek_delay_2:byte
  57  0000              ___opdswa equ [46]
  58  0000              ___opdswb equ [47]
  59  0000              ___opdswc equ [48]
"File: initial.ASM   Assembler  Version HGASM0202      Page 2

  60  0000              ___opdswd equ [49]
  61  0000              ___opda0cal equ [53]
  62  0000              ___opda1cal equ [54]
  63  0000              ___opdc0 equ [50]
  64  0000              ___opdc1 equ [51]
  65  0000              ___opdccal equ [55]
  66  0000              public _initial_opa
  67  0000              #pragma debug scope 2 1

  93  0000              #line 93 "D:\Downloads\ShuttleByDerek\initial.c"
  93  0000              _initial_opa .section 'code'
  93  0000              _initial_opa proc
  95  0000              #line 95 "D:\Downloads\ShuttleByDerek\initial.c"
  95  0000  1F2E        	clr [46]
  96  0001              #line 96 "D:\Downloads\ShuttleByDerek\initial.c"
  96  0001  1F2F        	clr [47]
  97  0002              #line 97 "D:\Downloads\ShuttleByDerek\initial.c"
  97  0002  1F30        	clr [48]
  98  0003              #line 98 "D:\Downloads\ShuttleByDerek\initial.c"
  98  0003  1F31        	clr [49]
  99  0004              #line 99 "D:\Downloads\ShuttleByDerek\initial.c"
  99  0004  3131        	set [49].2
 100  0005              #line 100 "D:\Downloads\ShuttleByDerek\initial.c"
 100  0005  31AE        	set [46].3
 101  0006              #line 101 "D:\Downloads\ShuttleByDerek\initial.c"
 101  0006  322E        	set [46].4
 102  0007              #line 102 "D:\Downloads\ShuttleByDerek\initial.c"
 102  0007  31B1        	set [49].3
 104  0008              #line 104 "D:\Downloads\ShuttleByDerek\initial.c"
 104  0008  312E        	set [46].2
 105  0009              #line 105 "D:\Downloads\ShuttleByDerek\initial.c"
 105  0009  32AE        	set [46].5
 106  000A              #line 106 "D:\Downloads\ShuttleByDerek\initial.c"
 106  000A  332E        	set [46].6
 107  000B              #line 107 "D:\Downloads\ShuttleByDerek\initial.c"
 107  000B  37B5        	clr [53].7
 108  000C              #line 108 "D:\Downloads\ShuttleByDerek\initial.c"
 108  000C  3630        	clr [48].4
 109  000D              #line 109 "D:\Downloads\ShuttleByDerek\initial.c"
 109  000D  32B0        	set [48].5
 110  000E              #line 110 "D:\Downloads\ShuttleByDerek\initial.c"
 110  000E  3330        	set [48].6
 112  000F              #line 112 "D:\Downloads\ShuttleByDerek\initial.c"
 112  000F  33AF        	set [47].7
 113  0010              #line 113 "D:\Downloads\ShuttleByDerek\initial.c"
 113  0010  3030        	set [48].0
 114  0011              #line 114 "D:\Downloads\ShuttleByDerek\initial.c"
 114  0011  30B1        	set [49].1
 115  0012              #line 115 "D:\Downloads\ShuttleByDerek\initial.c"
 115  0012  37B6        	clr [54].7
 117  0013              #line 117 "D:\Downloads\ShuttleByDerek\initial.c"
 117  0013  0FE0        	mov a,224
 117  0014  00B2        	mov [50],a
 118  0015              #line 118 "D:\Downloads\ShuttleByDerek\initial.c"
 118  0015  0F03        	mov a,3
 118  0016  00B3        	mov [51],a
 119  0017              #line 119 "D:\Downloads\ShuttleByDerek\initial.c"
 119  0017  1F37        	clr [55]
 119  0018  0003        	ret
 119  0019              _initial_opa endp
"File: initial.c     Assembler  Version HGASM0202      Page 3

 119  0019              #line 119 "D:\Downloads\ShuttleByDerek\initial.c"
 119  0019              #pragma debug scope 1 1
 119  0019              ___sadc0 equ [58]
 119  0019              ___sadc1 equ [59]
 119  0019              ___sadc2 equ [60]
 119  0019              public _initial_adc
 119  0019              #pragma debug scope 3 1
 122  0019              #line 122 "D:\Downloads\ShuttleByDerek\initial.c"
 122  0000              _initial_adc .section 'code'
 122  0000              _initial_adc proc
 123  0000              #line 123 "D:\Downloads\ShuttleByDerek\initial.c"
 123  0000  0F08        	mov a,8
 123  0001  00BA        	mov [58],a
 124  0002              #line 124 "D:\Downloads\ShuttleByDerek\initial.c"
 124  0002  1F3B        	clr [59]
 125  0003              #line 125 "D:\Downloads\ShuttleByDerek\initial.c"
 125  0003  1F3C        	clr [60]
 125  0004  0003        	ret
 125  0005              _initial_adc endp
 125  0005              #line 125 "D:\Downloads\ShuttleByDerek\initial.c"
 125  0005              #pragma debug scope 1 1
 125  0005              ___scc equ [11]
 125  0005              ___intc0 equ [34]
 125  0005              public _halt_set
 125  0005              #pragma debug scope 4 1
 128  0005              #line 128 "D:\Downloads\ShuttleByDerek\initial.c"
 128  0000              _halt_set .section 'code'
 128  0000              _halt_set proc
 129  0000              #line 129 "D:\Downloads\ShuttleByDerek\initial.c"
 129  0000  1F0B        	clr [11]
 130  0001              #line 130 "D:\Downloads\ShuttleByDerek\initial.c"
 130  0001  1F3A        	clr [58]
 131  0002              #line 131 "D:\Downloads\ShuttleByDerek\initial.c"
 131  0002  1F3B        	clr [59]
 132  0003              #line 132 "D:\Downloads\ShuttleByDerek\initial.c"
 132  0003  1F3C        	clr [60]
 133  0004              #line 133 "D:\Downloads\ShuttleByDerek\initial.c"
 133  0004  3422        	clr [34].0
 133  0005  0003        	ret
 133  0006              _halt_set endp
 133  0006              #line 133 "D:\Downloads\ShuttleByDerek\initial.c"
 133  0006              #pragma debug scope 1 1
 133  0006              public _wake_set
 133  0006              #pragma debug scope 5 1
 136  0006              #line 136 "D:\Downloads\ShuttleByDerek\initial.c"
 136  0000              _wake_set .section 'code'
 136  0000              _wake_set proc
 137  0000              #line 137 "D:\Downloads\ShuttleByDerek\initial.c"
 137  0000  1F0B        	clr [11]
 138  0001              #line 138 "D:\Downloads\ShuttleByDerek\initial.c"
 138  0001  2000     R  	call _initial_adc
 138  0002  0003        	ret
 138  0003              _wake_set endp
 138  0003              #line 138 "D:\Downloads\ShuttleByDerek\initial.c"
 138  0003              #pragma debug scope 1 1
 138  0003              ___bp equ [4]
 138  0003              ___mp0 equ [1]
 138  0003              ___iar0 equ [0]
 138  0003              public _clear_ram
 138  0003              #pragma debug scope 6 1
"File: initial.c     Assembler  Version HGASM0202      Page 4

 141  0003              #line 141 "D:\Downloads\ShuttleByDerek\initial.c"
 141  0000              _clear_ram .section 'code'
 141  0000              _clear_ram proc
 142  0000              #line 142 "D:\Downloads\ShuttleByDerek\initial.c"
 142  0000  1F04        	clr [4]
 143  0001              #line 143 "D:\Downloads\ShuttleByDerek\initial.c"
 143  0001  1F81        	set [1]
 143  0002  2800     R  	jmp _L6
 143  0003              _L7:
 145  0003              #line 145 "D:\Downloads\ShuttleByDerek\initial.c"
 145  0003              ;# 145 "D:\Downloads\ShuttleByDerek\initial.c" 1
 145  0003  0001        	clr wdt
 146  0004              #line 146 "D:\Downloads\ShuttleByDerek\initial.c"
 146  0004  1F00        	clr [0]
 143  0005              #line 143 "D:\Downloads\ShuttleByDerek\initial.c"
 143  0005  1581        	dec [1]
 143  0006              _L6:
 143  0006  0FBF        	mov a,191
 143  0007  0201        	sub a,[1]
 143  0008  380A        	snz c
 143  0009  2800     R  	jmp _L7
 143  000A  0003        	ret
 143  000B              _clear_ram endp
 143  000B              #line 143 "D:\Downloads\ShuttleByDerek\initial.c"
 143  000B              #pragma debug scope 1 1
 143  000B              public _opa_offset
 143  000B              #pragma debug scope 7 1
 150  000B              #line 150 "D:\Downloads\ShuttleByDerek\initial.c"
 150  0000              _opa_offset .section 'code'
 150  0000              _opa_offset proc
 153  0000              #line 153 "D:\Downloads\ShuttleByDerek\initial.c"
 153  0000  0FC0        	mov a,192
 153  0001  00AE        	mov [46],a
 154  0002              #line 154 "D:\Downloads\ShuttleByDerek\initial.c"
 154  0002  0F03        	mov a,3
 154  0003  00AF        	mov [47],a
 155  0004              #line 155 "D:\Downloads\ShuttleByDerek\initial.c"
 155  0004  1F30        	clr [48]
 156  0005              #line 156 "D:\Downloads\ShuttleByDerek\initial.c"
 156  0005  1F31        	clr [49]
 158  0006              #line 158 "D:\Downloads\ShuttleByDerek\initial.c"
 158  0006  0FC0        	mov a,192
 158  0007  00B5        	mov [53],a
 159  0008              #line 159 "D:\Downloads\ShuttleByDerek\initial.c"
 159  0008  1F00     E  	clr ra
 159  0009  3F33        	sz [51].6
 159  000A  1480     E  	inc ra
 160  000B              #line 160 "D:\Downloads\ShuttleByDerek\initial.c"
 160  000B  0FC0        	mov a,192
 160  000C  00B5        	mov [53],a
 160  000D              _L10:
 160  000D              #line 160 "D:\Downloads\ShuttleByDerek\initial.c"
 160  000D  1635        	siza [53]
 160  000E  2800     R  	jmp _LI1
 160  000F  2800     R  	jmp _L30
 160  0010              _LI1:
 162  0010              #line 162 "D:\Downloads\ShuttleByDerek\initial.c"
 162  0010              ;# 162 "D:\Downloads\ShuttleByDerek\initial.c" 1
 162  0010  0001        	clr wdt
 163  0011              #line 163 "D:\Downloads\ShuttleByDerek\initial.c"
"File: initial.c     Assembler  Version HGASM0202      Page 5

 163  0011  1F00     E  	clr rb
 163  0012  3F33        	sz [51].6
 163  0013  1480     E  	inc rb
 163  0014  0700     E  	mov a,ra
 163  0015  0200     E  	sub a,rb
 163  0016  3D0A        	sz z
 163  0017  2800     R  	jmp _L11
 165  0018              #line 165 "D:\Downloads\ShuttleByDerek\initial.c"
 165  0018  0735        	mov a,[53]
 165  0019  0080     E  	mov ra,a
 166  001A              #line 166 "D:\Downloads\ShuttleByDerek\initial.c"
 166  001A  2800     R  	jmp _L12
 166  001B              _L11:
 168  001B              #line 168 "D:\Downloads\ShuttleByDerek\initial.c"
 168  001B  0735        	mov a,[53]
 168  001C  0AFE        	sub a,254
 168  001D  390A        	snz z
 168  001E  2800     R  	jmp _L13
 169  001F              #line 169 "D:\Downloads\ShuttleByDerek\initial.c"
 169  001F  0FC0        	mov a,192
 169  0020  00B5        	mov [53],a
 169  0021              _L13:
 160  0021              #line 160 "D:\Downloads\ShuttleByDerek\initial.c"
 160  0021  14B5        	inc [53]
 160  0022  2800     R  	jmp _L10
 160  0023              _L30:
 151  0023              #line 151 "D:\Downloads\ShuttleByDerek\initial.c"
 151  0023  1F00     E  	clr ra
 151  0024              _L12:
 172  0024              #line 172 "D:\Downloads\ShuttleByDerek\initial.c"
 172  0024  1FB5        	set [53]
 173  0025              #line 173 "D:\Downloads\ShuttleByDerek\initial.c"
 173  0025  1F00     E  	clr rb
 173  0026  3F33        	sz [51].6
 173  0027  1480     E  	inc rb
 174  0028              #line 174 "D:\Downloads\ShuttleByDerek\initial.c"
 174  0028  1FB5        	set [53]
 174  0029              _L15:
 174  0029  0FC0        	mov a,192
 174  002A  0235        	sub a,[53]
 174  002B  3C0A        	sz c
 174  002C  2800     R  	jmp _L31
 176  002D              #line 176 "D:\Downloads\ShuttleByDerek\initial.c"
 176  002D              ;# 176 "D:\Downloads\ShuttleByDerek\initial.c" 1
 176  002D  0001        	clr wdt
 177  002E              #line 177 "D:\Downloads\ShuttleByDerek\initial.c"
 177  002E  1F00     E  	clr rc
 177  002F  3F33        	sz [51].6
 177  0030  1480     E  	inc rc
 177  0031  0700     E  	mov a,rb
 177  0032  0200     E  	sub a,rc
 177  0033  3D0A        	sz z
 177  0034  2800     R  	jmp _L16
 179  0035              #line 179 "D:\Downloads\ShuttleByDerek\initial.c"
 179  0035  0735        	mov a,[53]
 179  0036  0080     E  	mov rb,a
 180  0037              #line 180 "D:\Downloads\ShuttleByDerek\initial.c"
 180  0037  2800     R  	jmp _L17
 180  0038              _L16:
 182  0038              #line 182 "D:\Downloads\ShuttleByDerek\initial.c"
"File: initial.c     Assembler  Version HGASM0202      Page 6

 182  0038  0735        	mov a,[53]
 182  0039  0AC1        	sub a,193
 182  003A  390A        	snz z
 182  003B  2800     R  	jmp _L18
 183  003C              #line 183 "D:\Downloads\ShuttleByDerek\initial.c"
 183  003C  1FB5        	set [53]
 183  003D              _L18:
 174  003D              #line 174 "D:\Downloads\ShuttleByDerek\initial.c"
 174  003D  15B5        	dec [53]
 174  003E  2800     R  	jmp _L15
 174  003F              _L31:
 151  003F              #line 151 "D:\Downloads\ShuttleByDerek\initial.c"
 151  003F  1F00     E  	clr rb
 151  0040              _L17:
 185  0040              #line 185 "D:\Downloads\ShuttleByDerek\initial.c"
 185  0040  0F3F        	mov a,63
 185  0041  0680     E  	andm a,rb
 185  0042  0F3F        	mov a,63
 185  0043  0680     E  	andm a,ra
 185  0044  0700     E  	mov a,rb
 185  0045  0380     E  	addm a,ra
 185  0046  1B80     E  	rrc ra
 185  0047  1400     E  	inca ra
 185  0048  00B5        	mov [53],a
 192  0049              #line 192 "D:\Downloads\ShuttleByDerek\initial.c"
 192  0049  1F2E        	clr [46]
 193  004A              #line 193 "D:\Downloads\ShuttleByDerek\initial.c"
 193  004A  0F03        	mov a,3
 193  004B  00AF        	mov [47],a
 194  004C              #line 194 "D:\Downloads\ShuttleByDerek\initial.c"
 194  004C  0F02        	mov a,2
 194  004D  00B0        	mov [48],a
 195  004E              #line 195 "D:\Downloads\ShuttleByDerek\initial.c"
 195  004E  1F31        	clr [49]
 197  004F              #line 197 "D:\Downloads\ShuttleByDerek\initial.c"
 197  004F  0FC0        	mov a,192
 197  0050  00B6        	mov [54],a
 198  0051              #line 198 "D:\Downloads\ShuttleByDerek\initial.c"
 198  0051  1833        	rla [51]
 198  0052  0E01        	and a,1
 198  0053  0080     E  	mov ra,a
 199  0054              #line 199 "D:\Downloads\ShuttleByDerek\initial.c"
 199  0054  0FC0        	mov a,192
 199  0055  00B6        	mov [54],a
 199  0056              _L20:
 199  0056  1636        	siza [54]
 199  0057  2800     R  	jmp _LI2
 199  0058  2800     R  	jmp _L32
 199  0059              _LI2:
 201  0059              #line 201 "D:\Downloads\ShuttleByDerek\initial.c"
 201  0059              ;# 201 "D:\Downloads\ShuttleByDerek\initial.c" 1
 201  0059  0001        	clr wdt
 202  005A              #line 202 "D:\Downloads\ShuttleByDerek\initial.c"
 202  005A  1833        	rla [51]
 202  005B  0E01        	and a,1
 202  005C  0080     E  	mov rb,a
 202  005D  0700     E  	mov a,ra
 202  005E  0200     E  	sub a,rb
 202  005F  3D0A        	sz z
 202  0060  2800     R  	jmp _L21
"File: initial.c     Assembler  Version HGASM0202      Page 7

 204  0061              #line 204 "D:\Downloads\ShuttleByDerek\initial.c"
 204  0061  0736        	mov a,[54]
 204  0062  0080     E  	mov ra,a
 205  0063              #line 205 "D:\Downloads\ShuttleByDerek\initial.c"
 205  0063  2800     R  	jmp _L22
 205  0064              _L21:
 207  0064              #line 207 "D:\Downloads\ShuttleByDerek\initial.c"
 207  0064  0736        	mov a,[54]
 207  0065  0AFE        	sub a,254
 207  0066  390A        	snz z
 207  0067  2800     R  	jmp _L23
 208  0068              #line 208 "D:\Downloads\ShuttleByDerek\initial.c"
 208  0068  0FC0        	mov a,192
 208  0069  00B6        	mov [54],a
 208  006A              _L23:
 199  006A              #line 199 "D:\Downloads\ShuttleByDerek\initial.c"
 199  006A  14B6        	inc [54]
 199  006B  2800     R  	jmp _L20
 199  006C              _L32:
 188  006C              #line 188 "D:\Downloads\ShuttleByDerek\initial.c"
 188  006C  1F00     E  	clr ra
 188  006D              _L22:
 211  006D              #line 211 "D:\Downloads\ShuttleByDerek\initial.c"
 211  006D  1FB6        	set [54]
 212  006E              #line 212 "D:\Downloads\ShuttleByDerek\initial.c"
 212  006E  1833        	rla [51]
 212  006F  0E01        	and a,1
 212  0070  0080     E  	mov rb,a
 213  0071              #line 213 "D:\Downloads\ShuttleByDerek\initial.c"
 213  0071  1FB6        	set [54]
 213  0072              _L25:
 213  0072  0FC0        	mov a,192
 213  0073  0236        	sub a,[54]
 213  0074  3C0A        	sz c
 213  0075  2800     R  	jmp _L33
 215  0076              #line 215 "D:\Downloads\ShuttleByDerek\initial.c"
 215  0076              ;# 215 "D:\Downloads\ShuttleByDerek\initial.c" 1
 215  0076  0001        	clr wdt
 216  0077              #line 216 "D:\Downloads\ShuttleByDerek\initial.c"
 216  0077  1833        	rla [51]
 216  0078  0E01        	and a,1
 216  0079  0080     E  	mov rc,a
 216  007A  0700     E  	mov a,rb
 216  007B  0200     E  	sub a,rc
 216  007C  3D0A        	sz z
 216  007D  2800     R  	jmp _L26
 218  007E              #line 218 "D:\Downloads\ShuttleByDerek\initial.c"
 218  007E  0736        	mov a,[54]
 218  007F  0080     E  	mov rb,a
 219  0080              #line 219 "D:\Downloads\ShuttleByDerek\initial.c"
 219  0080  2800     R  	jmp _L27
 219  0081              _L26:
 221  0081              #line 221 "D:\Downloads\ShuttleByDerek\initial.c"
 221  0081  0736        	mov a,[54]
 221  0082  0AC1        	sub a,193
 221  0083  390A        	snz z
 221  0084  2800     R  	jmp _L28
 222  0085              #line 222 "D:\Downloads\ShuttleByDerek\initial.c"
 222  0085  1FB6        	set [54]
 222  0086              _L28:
"File: initial.c     Assembler  Version HGASM0202      Page 8

 213  0086              #line 213 "D:\Downloads\ShuttleByDerek\initial.c"
 213  0086  15B6        	dec [54]
 213  0087  2800     R  	jmp _L25
 213  0088              _L33:
 189  0088              #line 189 "D:\Downloads\ShuttleByDerek\initial.c"
 189  0088  1F00     E  	clr rb
 189  0089              _L27:
 224  0089              #line 224 "D:\Downloads\ShuttleByDerek\initial.c"
 224  0089  0F3F        	mov a,63
 224  008A  0680     E  	andm a,rb
 224  008B  0F3F        	mov a,63
 224  008C  0680     E  	andm a,ra
 224  008D  0700     E  	mov a,rb
 224  008E  0380     E  	addm a,ra
 224  008F  1B80     E  	rrc ra
 224  0090  1400     E  	inca ra
 224  0091  00B6        	mov [54],a
 224  0092  0003        	ret
 224  0093              _opa_offset endp
 224  0093              #line 224 "D:\Downloads\ShuttleByDerek\initial.c"
 224  0093              #pragma debug scope 1 1
 224  0093              ___pa equ [20]
 224  0093              ___pac equ [21]
 224  0093              ___papu equ [22]
 224  0093              ___pawu equ [23]
 224  0093              ___pb equ [37]
 224  0093              ___pbc equ [38]
 224  0093              ___pbpu equ [39]
 224  0093              ___pas0 equ [31]
 224  0093              ___pas1 equ [32]
 224  0093              ___pbs0 equ [33]
 224  0093              ___ifs equ [61]
 224  0093              ___simc2 equ [27]
 224  0093              ___simc0 equ [25]
 224  0093              ___uucr1 equ [26]
 224  0093              ___uucr2 equ [27]
 224  0093              ___ubrg equ [29]
 224  0093              ___wdtc equ [18]
 224  0093              ___opdda equ [52]
 224  0093              public _initial
 224  0093              #pragma debug scope 8 1
   5  0093              #line 5 "D:\Downloads\ShuttleByDerek\initial.c"
   5  0000              _initial .section 'code'
   5  0000              _initial proc
   6  0000              #line 6 "D:\Downloads\ShuttleByDerek\initial.c"
   6  0000  378B        	clr [11].7
   7  0001              #line 7 "D:\Downloads\ShuttleByDerek\initial.c"
   7  0001  330B        	set [11].6
   8  0002              #line 8 "D:\Downloads\ShuttleByDerek\initial.c"
   8  0002  368B        	clr [11].5
  10  0003              #line 10 "D:\Downloads\ShuttleByDerek\initial.c"
  10  0003  0F20        	mov a,32
  10  0004  0094        	mov [20],a
  11  0005              #line 11 "D:\Downloads\ShuttleByDerek\initial.c"
  11  0005  0F9A        	mov a,154
  11  0006  0095        	mov [21],a
  12  0007              #line 12 "D:\Downloads\ShuttleByDerek\initial.c"
  12  0007  1F16        	clr [22]
  13  0008              #line 13 "D:\Downloads\ShuttleByDerek\initial.c"
  13  0008  1F17        	clr [23]
"File: initial.c     Assembler  Version HGASM0202      Page 9

  15  0009              #line 15 "D:\Downloads\ShuttleByDerek\initial.c"
  15  0009  0F02        	mov a,2
  15  000A  00A5        	mov [37],a
  16  000B              #line 16 "D:\Downloads\ShuttleByDerek\initial.c"
  16  000B  0F04        	mov a,4
  16  000C  00A6        	mov [38],a
  17  000D              #line 17 "D:\Downloads\ShuttleByDerek\initial.c"
  17  000D  0F04        	mov a,4
  17  000E  00A7        	mov [39],a
  19  000F              #line 19 "D:\Downloads\ShuttleByDerek\initial.c"
  19  000F  0F04        	mov a,4
  19  0010  009F        	mov [31],a
  20  0011              #line 20 "D:\Downloads\ShuttleByDerek\initial.c"
  20  0011  0F81        	mov a,129
  20  0012  00A0        	mov [32],a
  21  0013              #line 21 "D:\Downloads\ShuttleByDerek\initial.c"
  21  0013  0F02        	mov a,2
  21  0014  00A1        	mov [33],a
  23  0015              #line 23 "D:\Downloads\ShuttleByDerek\initial.c"
  23  0015  0F0C        	mov a,12
  23  0016  00BD        	mov [61],a
  24  0017              #line 24 "D:\Downloads\ShuttleByDerek\initial.c"
  24  0017  1F1B        	clr [27]
  25  0018              #line 25 "D:\Downloads\ShuttleByDerek\initial.c"
  25  0018  0F10        	mov a,16
  25  0019  0099        	mov [25],a
  26  001A              #line 26 "D:\Downloads\ShuttleByDerek\initial.c"
  26  001A  0F80        	mov a,128
  26  001B  009A        	mov [26],a
  27  001C              #line 27 "D:\Downloads\ShuttleByDerek\initial.c"
  27  001C  0F81        	mov a,129
  27  001D  009B        	mov [27],a
  28  001E              #line 28 "D:\Downloads\ShuttleByDerek\initial.c"
  28  001E  0F0C        	mov a,12
  28  001F  009D        	mov [29],a
  45  0020              #line 45 "D:\Downloads\ShuttleByDerek\initial.c"
  45  0020  3512        	clr [18].2
  46  0021              #line 46 "D:\Downloads\ShuttleByDerek\initial.c"
  46  0021  3092        	set [18].1
  47  0022              #line 47 "D:\Downloads\ShuttleByDerek\initial.c"
  47  0022  3412        	clr [18].0
  82  0023              #line 82 "D:\Downloads\ShuttleByDerek\initial.c"
  82  0023  0FE0        	mov a,224
  82  0024  00B2        	mov [50],a
  83  0025              #line 83 "D:\Downloads\ShuttleByDerek\initial.c"
  83  0025  0F03        	mov a,3
  83  0026  00B3        	mov [51],a
  84  0027              #line 84 "D:\Downloads\ShuttleByDerek\initial.c"
  84  0027  1F37        	clr [55]
  85  0028              #line 85 "D:\Downloads\ShuttleByDerek\initial.c"
  85  0028  2000     R  	call _opa_offset
  86  0029              #line 86 "D:\Downloads\ShuttleByDerek\initial.c"
  86  0029  2000     R  	call _initial_opa
  87  002A              #line 87 "D:\Downloads\ShuttleByDerek\initial.c"
  87  002A  1F34        	clr [52]
  88  002B              #line 88 "D:\Downloads\ShuttleByDerek\initial.c"
  88  002B  1F37        	clr [55]
  90  002C              #line 90 "D:\Downloads\ShuttleByDerek\initial.c"
  90  002C  2000     R  	call _initial_adc
  90  002D  0003        	ret
"File: initial.c     Assembler  Version HGASM0202      Page 10

  90  002E              _initial endp
  90  002E              #line 90 "D:\Downloads\ShuttleByDerek\initial.c"
  90  002E              #pragma debug scope 1 1
  90  002E              #pragma debug variable 8 1 ___mp0 "__mp0" 1
  90  002E              #pragma debug struct_end
  90  002E              #pragma debug struct_end
  90  002E              #pragma debug union_end
  90  002E              #pragma debug union_end
  90  002E              #pragma debug variable 43 1 ___bp "__bp" 1
  90  002E              #pragma debug struct_end
  90  002E              #pragma debug struct_end
  90  002E              #pragma debug union_end
  90  002E              #pragma debug union_end
  90  002E              #pragma debug variable 45 1 ___scc "__scc" 1
  90  002E              #pragma debug struct_end
  90  002E              #pragma debug struct_end
  90  002E              #pragma debug union_end
  90  002E              #pragma debug union_end
  90  002E              #pragma debug variable 47 1 ___wdtc "__wdtc" 1
  90  002E              #pragma debug struct_end
  90  002E              #pragma debug struct_end
  90  002E              #pragma debug union_end
  90  002E              #pragma debug union_end
  90  002E              #pragma debug variable 49 1 ___pa "__pa" 1
  90  002E              #pragma debug struct_end
  90  002E              #pragma debug struct_end
  90  002E              #pragma debug union_end
  90  002E              #pragma debug union_end
  90  002E              #pragma debug variable 51 1 ___pac "__pac" 1
  90  002E              #pragma debug struct_end
  90  002E              #pragma debug struct_end
  90  002E              #pragma debug union_end
  90  002E              #pragma debug union_end
  90  002E              #pragma debug variable 53 1 ___papu "__papu" 1
  90  002E              #pragma debug struct_end
  90  002E              #pragma debug struct_end
  90  002E              #pragma debug union_end
  90  002E              #pragma debug union_end
  90  002E              #pragma debug variable 55 1 ___pawu "__pawu" 1
  90  002E              #pragma debug struct_end
  90  002E              #pragma debug struct_end
  90  002E              #pragma debug union_end
  90  002E              #pragma debug union_end
  90  002E              #pragma debug variable 57 1 ___simc0 "__simc0" 1
  90  002E              #pragma debug struct_end
  90  002E              #pragma debug struct_end
  90  002E              #pragma debug union_end
  90  002E              #pragma debug union_end
  90  002E              #pragma debug variable 59 1 ___uucr1 "__uucr1" 1
  90  002E              #pragma debug struct_end
  90  002E              #pragma debug struct_end
  90  002E              #pragma debug union_end
  90  002E              #pragma debug union_end
  90  002E              #pragma debug variable 61 1 ___simc2 "__simc2" 1
  90  002E              #pragma debug struct_end
  90  002E              #pragma debug struct_end
  90  002E              #pragma debug union_end
  90  002E              #pragma debug union_end
  90  002E              #pragma debug variable 63 1 ___uucr2 "__uucr2" 1
  90  002E              #pragma debug struct_end
"File: initial.c     Assembler  Version HGASM0202      Page 11

  90  002E              #pragma debug struct_end
  90  002E              #pragma debug union_end
  90  002E              #pragma debug union_end
  90  002E              #pragma debug variable 65 1 ___ubrg "__ubrg" 1
  90  002E              #pragma debug struct_end
  90  002E              #pragma debug struct_end
  90  002E              #pragma debug union_end
  90  002E              #pragma debug union_end
  90  002E              #pragma debug variable 67 1 ___pas0 "__pas0" 1
  90  002E              #pragma debug struct_end
  90  002E              #pragma debug struct_end
  90  002E              #pragma debug union_end
  90  002E              #pragma debug union_end
  90  002E              #pragma debug variable 69 1 ___pas1 "__pas1" 1
  90  002E              #pragma debug struct_end
  90  002E              #pragma debug struct_end
  90  002E              #pragma debug union_end
  90  002E              #pragma debug union_end
  90  002E              #pragma debug variable 71 1 ___pbs0 "__pbs0" 1
  90  002E              #pragma debug struct_end
  90  002E              #pragma debug struct_end
  90  002E              #pragma debug union_end
  90  002E              #pragma debug union_end
  90  002E              #pragma debug variable 73 1 ___intc0 "__intc0" 1
  90  002E              #pragma debug struct_end
  90  002E              #pragma debug struct_end
  90  002E              #pragma debug union_end
  90  002E              #pragma debug union_end
  90  002E              #pragma debug variable 75 1 ___pb "__pb" 1
  90  002E              #pragma debug struct_end
  90  002E              #pragma debug struct_end
  90  002E              #pragma debug union_end
  90  002E              #pragma debug union_end
  90  002E              #pragma debug variable 77 1 ___pbc "__pbc" 1
  90  002E              #pragma debug struct_end
  90  002E              #pragma debug struct_end
  90  002E              #pragma debug union_end
  90  002E              #pragma debug union_end
  90  002E              #pragma debug variable 79 1 ___pbpu "__pbpu" 1
  90  002E              #pragma debug struct_end
  90  002E              #pragma debug struct_end
  90  002E              #pragma debug union_end
  90  002E              #pragma debug union_end
  90  002E              #pragma debug variable 81 1 ___opdswa "__opdswa" 1
  90  002E              #pragma debug struct_end
  90  002E              #pragma debug struct_end
  90  002E              #pragma debug union_end
  90  002E              #pragma debug union_end
  90  002E              #pragma debug variable 83 1 ___opdswb "__opdswb" 1
  90  002E              #pragma debug struct_end
  90  002E              #pragma debug struct_end
  90  002E              #pragma debug union_end
  90  002E              #pragma debug union_end
  90  002E              #pragma debug variable 85 1 ___opdswc "__opdswc" 1
  90  002E              #pragma debug struct_end
  90  002E              #pragma debug struct_end
  90  002E              #pragma debug union_end
  90  002E              #pragma debug union_end
  90  002E              #pragma debug variable 87 1 ___opdswd "__opdswd" 1
  90  002E              #pragma debug struct_end
"File: initial.c     Assembler  Version HGASM0202      Page 12

  90  002E              #pragma debug struct_end
  90  002E              #pragma debug union_end
  90  002E              #pragma debug union_end
  90  002E              #pragma debug variable 89 1 ___opdc0 "__opdc0" 1
  90  002E              #pragma debug struct_end
  90  002E              #pragma debug struct_end
  90  002E              #pragma debug union_end
  90  002E              #pragma debug union_end
  90  002E              #pragma debug variable 91 1 ___opdc1 "__opdc1" 1
  90  002E              #pragma debug variable 8 1 ___opdda "__opdda" 1
  90  002E              #pragma debug struct_end
  90  002E              #pragma debug struct_end
  90  002E              #pragma debug union_end
  90  002E              #pragma debug union_end
  90  002E              #pragma debug variable 93 1 ___opda0cal "__opda0cal" 1
  90  002E              #pragma debug struct_end
  90  002E              #pragma debug struct_end
  90  002E              #pragma debug union_end
  90  002E              #pragma debug union_end
  90  002E              #pragma debug variable 95 1 ___opda1cal "__opda1cal" 1
  90  002E              #pragma debug struct_end
  90  002E              #pragma debug struct_end
  90  002E              #pragma debug union_end
  90  002E              #pragma debug union_end
  90  002E              #pragma debug variable 97 1 ___opdccal "__opdccal" 1
  90  002E              #pragma debug struct_end
  90  002E              #pragma debug struct_end
  90  002E              #pragma debug union_end
  90  002E              #pragma debug union_end
  90  002E              #pragma debug variable 99 1 ___sadc0 "__sadc0" 1
  90  002E              #pragma debug struct_end
  90  002E              #pragma debug struct_end
  90  002E              #pragma debug union_end
  90  002E              #pragma debug union_end
  90  002E              #pragma debug variable 101 1 ___sadc1 "__sadc1" 1
  90  002E              #pragma debug struct_end
  90  002E              #pragma debug struct_end
  90  002E              #pragma debug union_end
  90  002E              #pragma debug union_end
  90  002E              #pragma debug variable 103 1 ___sadc2 "__sadc2" 1
  90  002E              #pragma debug struct_end
  90  002E              #pragma debug struct_end
  90  002E              #pragma debug union_end
  90  002E              #pragma debug union_end
  90  002E              #pragma debug variable 105 1 ___ifs "__ifs" 1
  90  002E              #pragma debug variable 8 1 ___iar0 "__iar0" 1
  90  002E              
  90  002E              ; 
  90  002E              ; Generated by holtek-gcc v3.19, Fri Mar 20 15:19:53 2020
  90  002E              ; Rebuild 718
  90  002E              ; end of file


        0 Errors, 0